
bufbomb:     file format elf32-i386


Disassembly of section .init:

080487fc <_init>:
 80487fc:	53                   	push   %ebx
 80487fd:	83 ec 08             	sub    $0x8,%esp
 8048800:	e8 ab 02 00 00       	call   8048ab0 <__x86.get_pc_thunk.bx>
 8048805:	81 c3 fb 37 00 00    	add    $0x37fb,%ebx
 804880b:	8b 83 fc ff ff ff    	mov    -0x4(%ebx),%eax
 8048811:	85 c0                	test   %eax,%eax
 8048813:	74 05                	je     804881a <_init+0x1e>
 8048815:	e8 f6 00 00 00       	call   8048910 <__gmon_start__@plt>
 804881a:	83 c4 08             	add    $0x8,%esp
 804881d:	5b                   	pop    %ebx
 804881e:	c3                   	ret    

Disassembly of section .plt:

08048820 <read@plt-0x10>:
 8048820:	ff 35 04 c0 04 08    	pushl  0x804c004
 8048826:	ff 25 08 c0 04 08    	jmp    *0x804c008
 804882c:	00 00                	add    %al,(%eax)
	...

08048830 <read@plt>:
 8048830:	ff 25 0c c0 04 08    	jmp    *0x804c00c
 8048836:	68 00 00 00 00       	push   $0x0
 804883b:	e9 e0 ff ff ff       	jmp    8048820 <_init+0x24>

08048840 <srandom@plt>:
 8048840:	ff 25 10 c0 04 08    	jmp    *0x804c010
 8048846:	68 08 00 00 00       	push   $0x8
 804884b:	e9 d0 ff ff ff       	jmp    8048820 <_init+0x24>

08048850 <signal@plt>:
 8048850:	ff 25 14 c0 04 08    	jmp    *0x804c014
 8048856:	68 10 00 00 00       	push   $0x10
 804885b:	e9 c0 ff ff ff       	jmp    8048820 <_init+0x24>

08048860 <alarm@plt>:
 8048860:	ff 25 18 c0 04 08    	jmp    *0x804c018
 8048866:	68 18 00 00 00       	push   $0x18
 804886b:	e9 b0 ff ff ff       	jmp    8048820 <_init+0x24>

08048870 <_IO_getc@plt>:
 8048870:	ff 25 1c c0 04 08    	jmp    *0x804c01c
 8048876:	68 20 00 00 00       	push   $0x20
 804887b:	e9 a0 ff ff ff       	jmp    8048820 <_init+0x24>

08048880 <unlink@plt>:
 8048880:	ff 25 20 c0 04 08    	jmp    *0x804c020
 8048886:	68 28 00 00 00       	push   $0x28
 804888b:	e9 90 ff ff ff       	jmp    8048820 <_init+0x24>

08048890 <__xstat@plt>:
 8048890:	ff 25 24 c0 04 08    	jmp    *0x804c024
 8048896:	68 30 00 00 00       	push   $0x30
 804889b:	e9 80 ff ff ff       	jmp    8048820 <_init+0x24>

080488a0 <fwrite@plt>:
 80488a0:	ff 25 28 c0 04 08    	jmp    *0x804c028
 80488a6:	68 38 00 00 00       	push   $0x38
 80488ab:	e9 70 ff ff ff       	jmp    8048820 <_init+0x24>

080488b0 <strcpy@plt>:
 80488b0:	ff 25 2c c0 04 08    	jmp    *0x804c02c
 80488b6:	68 40 00 00 00       	push   $0x40
 80488bb:	e9 60 ff ff ff       	jmp    8048820 <_init+0x24>

080488c0 <getpid@plt>:
 80488c0:	ff 25 30 c0 04 08    	jmp    *0x804c030
 80488c6:	68 48 00 00 00       	push   $0x48
 80488cb:	e9 50 ff ff ff       	jmp    8048820 <_init+0x24>

080488d0 <gethostname@plt>:
 80488d0:	ff 25 34 c0 04 08    	jmp    *0x804c034
 80488d6:	68 50 00 00 00       	push   $0x50
 80488db:	e9 40 ff ff ff       	jmp    8048820 <_init+0x24>

080488e0 <puts@plt>:
 80488e0:	ff 25 38 c0 04 08    	jmp    *0x804c038
 80488e6:	68 58 00 00 00       	push   $0x58
 80488eb:	e9 30 ff ff ff       	jmp    8048820 <_init+0x24>

080488f0 <__memmove_chk@plt>:
 80488f0:	ff 25 3c c0 04 08    	jmp    *0x804c03c
 80488f6:	68 60 00 00 00       	push   $0x60
 80488fb:	e9 20 ff ff ff       	jmp    8048820 <_init+0x24>

08048900 <__memcpy_chk@plt>:
 8048900:	ff 25 40 c0 04 08    	jmp    *0x804c040
 8048906:	68 68 00 00 00       	push   $0x68
 804890b:	e9 10 ff ff ff       	jmp    8048820 <_init+0x24>

08048910 <__gmon_start__@plt>:
 8048910:	ff 25 44 c0 04 08    	jmp    *0x804c044
 8048916:	68 70 00 00 00       	push   $0x70
 804891b:	e9 00 ff ff ff       	jmp    8048820 <_init+0x24>

08048920 <exit@plt>:
 8048920:	ff 25 48 c0 04 08    	jmp    *0x804c048
 8048926:	68 78 00 00 00       	push   $0x78
 804892b:	e9 f0 fe ff ff       	jmp    8048820 <_init+0x24>

08048930 <srand@plt>:
 8048930:	ff 25 4c c0 04 08    	jmp    *0x804c04c
 8048936:	68 80 00 00 00       	push   $0x80
 804893b:	e9 e0 fe ff ff       	jmp    8048820 <_init+0x24>

08048940 <mmap@plt>:
 8048940:	ff 25 50 c0 04 08    	jmp    *0x804c050
 8048946:	68 88 00 00 00       	push   $0x88
 804894b:	e9 d0 fe ff ff       	jmp    8048820 <_init+0x24>

08048950 <__libc_start_main@plt>:
 8048950:	ff 25 54 c0 04 08    	jmp    *0x804c054
 8048956:	68 90 00 00 00       	push   $0x90
 804895b:	e9 c0 fe ff ff       	jmp    8048820 <_init+0x24>

08048960 <write@plt>:
 8048960:	ff 25 58 c0 04 08    	jmp    *0x804c058
 8048966:	68 98 00 00 00       	push   $0x98
 804896b:	e9 b0 fe ff ff       	jmp    8048820 <_init+0x24>

08048970 <getopt@plt>:
 8048970:	ff 25 5c c0 04 08    	jmp    *0x804c05c
 8048976:	68 a0 00 00 00       	push   $0xa0
 804897b:	e9 a0 fe ff ff       	jmp    8048820 <_init+0x24>

08048980 <mkstemp@plt>:
 8048980:	ff 25 60 c0 04 08    	jmp    *0x804c060
 8048986:	68 a8 00 00 00       	push   $0xa8
 804898b:	e9 90 fe ff ff       	jmp    8048820 <_init+0x24>

08048990 <creat@plt>:
 8048990:	ff 25 64 c0 04 08    	jmp    *0x804c064
 8048996:	68 b0 00 00 00       	push   $0xb0
 804899b:	e9 80 fe ff ff       	jmp    8048820 <_init+0x24>

080489a0 <__isoc99_sscanf@plt>:
 80489a0:	ff 25 68 c0 04 08    	jmp    *0x804c068
 80489a6:	68 b8 00 00 00       	push   $0xb8
 80489ab:	e9 70 fe ff ff       	jmp    8048820 <_init+0x24>

080489b0 <memset@plt>:
 80489b0:	ff 25 6c c0 04 08    	jmp    *0x804c06c
 80489b6:	68 c0 00 00 00       	push   $0xc0
 80489bb:	e9 60 fe ff ff       	jmp    8048820 <_init+0x24>

080489c0 <__strdup@plt>:
 80489c0:	ff 25 70 c0 04 08    	jmp    *0x804c070
 80489c6:	68 c8 00 00 00       	push   $0xc8
 80489cb:	e9 50 fe ff ff       	jmp    8048820 <_init+0x24>

080489d0 <__errno_location@plt>:
 80489d0:	ff 25 74 c0 04 08    	jmp    *0x804c074
 80489d6:	68 d0 00 00 00       	push   $0xd0
 80489db:	e9 40 fe ff ff       	jmp    8048820 <_init+0x24>

080489e0 <rand@plt>:
 80489e0:	ff 25 78 c0 04 08    	jmp    *0x804c078
 80489e6:	68 d8 00 00 00       	push   $0xd8
 80489eb:	e9 30 fe ff ff       	jmp    8048820 <_init+0x24>

080489f0 <__printf_chk@plt>:
 80489f0:	ff 25 7c c0 04 08    	jmp    *0x804c07c
 80489f6:	68 e0 00 00 00       	push   $0xe0
 80489fb:	e9 20 fe ff ff       	jmp    8048820 <_init+0x24>

08048a00 <munmap@plt>:
 8048a00:	ff 25 80 c0 04 08    	jmp    *0x804c080
 8048a06:	68 e8 00 00 00       	push   $0xe8
 8048a0b:	e9 10 fe ff ff       	jmp    8048820 <_init+0x24>

08048a10 <socket@plt>:
 8048a10:	ff 25 84 c0 04 08    	jmp    *0x804c084
 8048a16:	68 f0 00 00 00       	push   $0xf0
 8048a1b:	e9 00 fe ff ff       	jmp    8048820 <_init+0x24>

08048a20 <random@plt>:
 8048a20:	ff 25 88 c0 04 08    	jmp    *0x804c088
 8048a26:	68 f8 00 00 00       	push   $0xf8
 8048a2b:	e9 f0 fd ff ff       	jmp    8048820 <_init+0x24>

08048a30 <gethostbyname@plt>:
 8048a30:	ff 25 8c c0 04 08    	jmp    *0x804c08c
 8048a36:	68 00 01 00 00       	push   $0x100
 8048a3b:	e9 e0 fd ff ff       	jmp    8048820 <_init+0x24>

08048a40 <connect@plt>:
 8048a40:	ff 25 90 c0 04 08    	jmp    *0x804c090
 8048a46:	68 08 01 00 00       	push   $0x108
 8048a4b:	e9 d0 fd ff ff       	jmp    8048820 <_init+0x24>

08048a50 <close@plt>:
 8048a50:	ff 25 94 c0 04 08    	jmp    *0x804c094
 8048a56:	68 10 01 00 00       	push   $0x110
 8048a5b:	e9 c0 fd ff ff       	jmp    8048820 <_init+0x24>

08048a60 <calloc@plt>:
 8048a60:	ff 25 98 c0 04 08    	jmp    *0x804c098
 8048a66:	68 18 01 00 00       	push   $0x118
 8048a6b:	e9 b0 fd ff ff       	jmp    8048820 <_init+0x24>

08048a70 <__sprintf_chk@plt>:
 8048a70:	ff 25 9c c0 04 08    	jmp    *0x804c09c
 8048a76:	68 20 01 00 00       	push   $0x120
 8048a7b:	e9 a0 fd ff ff       	jmp    8048820 <_init+0x24>

Disassembly of section .text:

08048a80 <_start>:
 8048a80:	31 ed                	xor    %ebp,%ebp
 8048a82:	5e                   	pop    %esi
 8048a83:	89 e1                	mov    %esp,%ecx
 8048a85:	83 e4 f0             	and    $0xfffffff0,%esp
 8048a88:	50                   	push   %eax
 8048a89:	54                   	push   %esp
 8048a8a:	52                   	push   %edx
 8048a8b:	68 e0 a1 04 08       	push   $0x804a1e0
 8048a90:	68 70 a1 04 08       	push   $0x804a170
 8048a95:	51                   	push   %ecx
 8048a96:	56                   	push   %esi
 8048a97:	68 d5 90 04 08       	push   $0x80490d5
 8048a9c:	e8 af fe ff ff       	call   8048950 <__libc_start_main@plt>
 8048aa1:	f4                   	hlt    
 8048aa2:	66 90                	xchg   %ax,%ax
 8048aa4:	66 90                	xchg   %ax,%ax
 8048aa6:	66 90                	xchg   %ax,%ax
 8048aa8:	66 90                	xchg   %ax,%ax
 8048aaa:	66 90                	xchg   %ax,%ax
 8048aac:	66 90                	xchg   %ax,%ax
 8048aae:	66 90                	xchg   %ax,%ax

08048ab0 <__x86.get_pc_thunk.bx>:
 8048ab0:	8b 1c 24             	mov    (%esp),%ebx
 8048ab3:	c3                   	ret    
 8048ab4:	66 90                	xchg   %ax,%ax
 8048ab6:	66 90                	xchg   %ax,%ax
 8048ab8:	66 90                	xchg   %ax,%ax
 8048aba:	66 90                	xchg   %ax,%ax
 8048abc:	66 90                	xchg   %ax,%ax
 8048abe:	66 90                	xchg   %ax,%ax

08048ac0 <deregister_tm_clones>:
 8048ac0:	b8 e3 d1 04 08       	mov    $0x804d1e3,%eax
 8048ac5:	2d e0 d1 04 08       	sub    $0x804d1e0,%eax
 8048aca:	83 f8 06             	cmp    $0x6,%eax
 8048acd:	77 01                	ja     8048ad0 <deregister_tm_clones+0x10>
 8048acf:	c3                   	ret    
 8048ad0:	b8 00 00 00 00       	mov    $0x0,%eax
 8048ad5:	85 c0                	test   %eax,%eax
 8048ad7:	74 f6                	je     8048acf <deregister_tm_clones+0xf>
 8048ad9:	55                   	push   %ebp
 8048ada:	89 e5                	mov    %esp,%ebp
 8048adc:	83 ec 18             	sub    $0x18,%esp
 8048adf:	c7 04 24 e0 d1 04 08 	movl   $0x804d1e0,(%esp)
 8048ae6:	ff d0                	call   *%eax
 8048ae8:	c9                   	leave  
 8048ae9:	c3                   	ret    
 8048aea:	8d b6 00 00 00 00    	lea    0x0(%esi),%esi

08048af0 <register_tm_clones>:
 8048af0:	b8 e0 d1 04 08       	mov    $0x804d1e0,%eax
 8048af5:	2d e0 d1 04 08       	sub    $0x804d1e0,%eax
 8048afa:	c1 f8 02             	sar    $0x2,%eax
 8048afd:	89 c2                	mov    %eax,%edx
 8048aff:	c1 ea 1f             	shr    $0x1f,%edx
 8048b02:	01 d0                	add    %edx,%eax
 8048b04:	d1 f8                	sar    %eax
 8048b06:	75 01                	jne    8048b09 <register_tm_clones+0x19>
 8048b08:	c3                   	ret    
 8048b09:	ba 00 00 00 00       	mov    $0x0,%edx
 8048b0e:	85 d2                	test   %edx,%edx
 8048b10:	74 f6                	je     8048b08 <register_tm_clones+0x18>
 8048b12:	55                   	push   %ebp
 8048b13:	89 e5                	mov    %esp,%ebp
 8048b15:	83 ec 18             	sub    $0x18,%esp
 8048b18:	89 44 24 04          	mov    %eax,0x4(%esp)
 8048b1c:	c7 04 24 e0 d1 04 08 	movl   $0x804d1e0,(%esp)
 8048b23:	ff d2                	call   *%edx
 8048b25:	c9                   	leave  
 8048b26:	c3                   	ret    
 8048b27:	89 f6                	mov    %esi,%esi
 8048b29:	8d bc 27 00 00 00 00 	lea    0x0(%edi,%eiz,1),%edi

08048b30 <__do_global_dtors_aux>:
 8048b30:	80 3d ec d1 04 08 00 	cmpb   $0x0,0x804d1ec
 8048b37:	75 13                	jne    8048b4c <__do_global_dtors_aux+0x1c>
 8048b39:	55                   	push   %ebp
 8048b3a:	89 e5                	mov    %esp,%ebp
 8048b3c:	83 ec 08             	sub    $0x8,%esp
 8048b3f:	e8 7c ff ff ff       	call   8048ac0 <deregister_tm_clones>
 8048b44:	c6 05 ec d1 04 08 01 	movb   $0x1,0x804d1ec
 8048b4b:	c9                   	leave  
 8048b4c:	f3 c3                	repz ret 
 8048b4e:	66 90                	xchg   %ax,%ax

08048b50 <frame_dummy>:
 8048b50:	a1 10 bf 04 08       	mov    0x804bf10,%eax
 8048b55:	85 c0                	test   %eax,%eax
 8048b57:	74 1f                	je     8048b78 <frame_dummy+0x28>
 8048b59:	b8 00 00 00 00       	mov    $0x0,%eax
 8048b5e:	85 c0                	test   %eax,%eax
 8048b60:	74 16                	je     8048b78 <frame_dummy+0x28>
 8048b62:	55                   	push   %ebp
 8048b63:	89 e5                	mov    %esp,%ebp
 8048b65:	83 ec 18             	sub    $0x18,%esp
 8048b68:	c7 04 24 10 bf 04 08 	movl   $0x804bf10,(%esp)
 8048b6f:	ff d0                	call   *%eax
 8048b71:	c9                   	leave  
 8048b72:	e9 79 ff ff ff       	jmp    8048af0 <register_tm_clones>
 8048b77:	90                   	nop
 8048b78:	e9 73 ff ff ff       	jmp    8048af0 <register_tm_clones>
 8048b7d:	66 90                	xchg   %ax,%ax
 8048b7f:	90                   	nop

08048b80 <bushandler>:
 8048b80:	55                   	push   %ebp
 8048b81:	89 e5                	mov    %esp,%ebp
 8048b83:	83 ec 18             	sub    $0x18,%esp
 8048b86:	c7 04 24 00 a2 04 08 	movl   $0x804a200,(%esp)
 8048b8d:	e8 4e fd ff ff       	call   80488e0 <puts@plt>
 8048b92:	c7 04 24 3c a4 04 08 	movl   $0x804a43c,(%esp)
 8048b99:	e8 42 fd ff ff       	call   80488e0 <puts@plt>
 8048b9e:	c7 04 24 00 00 00 00 	movl   $0x0,(%esp)
 8048ba5:	e8 76 fd ff ff       	call   8048920 <exit@plt>

08048baa <seghandler>:
 8048baa:	55                   	push   %ebp
 8048bab:	89 e5                	mov    %esp,%ebp
 8048bad:	83 ec 18             	sub    $0x18,%esp
 8048bb0:	c7 04 24 20 a2 04 08 	movl   $0x804a220,(%esp)
 8048bb7:	e8 24 fd ff ff       	call   80488e0 <puts@plt>
 8048bbc:	c7 04 24 3c a4 04 08 	movl   $0x804a43c,(%esp)
 8048bc3:	e8 18 fd ff ff       	call   80488e0 <puts@plt>
 8048bc8:	c7 04 24 00 00 00 00 	movl   $0x0,(%esp)
 8048bcf:	e8 4c fd ff ff       	call   8048920 <exit@plt>

08048bd4 <illegalhandler>:
 8048bd4:	55                   	push   %ebp
 8048bd5:	89 e5                	mov    %esp,%ebp
 8048bd7:	83 ec 18             	sub    $0x18,%esp
 8048bda:	c7 04 24 48 a2 04 08 	movl   $0x804a248,(%esp)
 8048be1:	e8 fa fc ff ff       	call   80488e0 <puts@plt>
 8048be6:	c7 04 24 3c a4 04 08 	movl   $0x804a43c,(%esp)
 8048bed:	e8 ee fc ff ff       	call   80488e0 <puts@plt>
 8048bf2:	c7 04 24 00 00 00 00 	movl   $0x0,(%esp)
 8048bf9:	e8 22 fd ff ff       	call   8048920 <exit@plt>

08048bfe <usage>:
 8048bfe:	55                   	push   %ebp
 8048bff:	89 e5                	mov    %esp,%ebp
 8048c01:	83 ec 18             	sub    $0x18,%esp
 8048c04:	89 44 24 08          	mov    %eax,0x8(%esp)
 8048c08:	c7 44 24 04 52 a4 04 	movl   $0x804a452,0x4(%esp)
 8048c0f:	08 
 8048c10:	c7 04 24 01 00 00 00 	movl   $0x1,(%esp)
 8048c17:	e8 d4 fd ff ff       	call   80489f0 <__printf_chk@plt>
 8048c1c:	c7 04 24 70 a4 04 08 	movl   $0x804a470,(%esp)
 8048c23:	e8 b8 fc ff ff       	call   80488e0 <puts@plt>
 8048c28:	c7 04 24 86 a4 04 08 	movl   $0x804a486,(%esp)
 8048c2f:	e8 ac fc ff ff       	call   80488e0 <puts@plt>
 8048c34:	c7 04 24 74 a2 04 08 	movl   $0x804a274,(%esp)
 8048c3b:	e8 a0 fc ff ff       	call   80488e0 <puts@plt>
 8048c40:	c7 04 24 b0 a2 04 08 	movl   $0x804a2b0,(%esp)
 8048c47:	e8 94 fc ff ff       	call   80488e0 <puts@plt>
 8048c4c:	c7 04 24 00 00 00 00 	movl   $0x0,(%esp)
 8048c53:	e8 c8 fc ff ff       	call   8048920 <exit@plt>

08048c58 <smoke>:
 8048c58:	55                   	push   %ebp
 8048c59:	89 e5                	mov    %esp,%ebp
 8048c5b:	83 ec 18             	sub    $0x18,%esp
 8048c5e:	c7 04 24 9f a4 04 08 	movl   $0x804a49f,(%esp)
 8048c65:	e8 76 fc ff ff       	call   80488e0 <puts@plt>
 8048c6a:	c7 04 24 00 00 00 00 	movl   $0x0,(%esp)
 8048c71:	e8 60 07 00 00       	call   80493d6 <validate>
 8048c76:	c7 04 24 00 00 00 00 	movl   $0x0,(%esp)
 8048c7d:	e8 9e fc ff ff       	call   8048920 <exit@plt>

08048c82 <fizz>:
 8048c82:	55                   	push   %ebp
 8048c83:	89 e5                	mov    %esp,%ebp
 8048c85:	83 ec 18             	sub    $0x18,%esp
 8048c88:	8b 45 08             	mov    0x8(%ebp),%eax
 8048c8b:	3b 05 14 d2 04 08    	cmp    0x804d214,%eax
 8048c91:	75 26                	jne    8048cb9 <fizz+0x37>
 8048c93:	89 44 24 08          	mov    %eax,0x8(%esp)
 8048c97:	c7 44 24 04 ba a4 04 	movl   $0x804a4ba,0x4(%esp)
 8048c9e:	08 
 8048c9f:	c7 04 24 01 00 00 00 	movl   $0x1,(%esp)
 8048ca6:	e8 45 fd ff ff       	call   80489f0 <__printf_chk@plt>
 8048cab:	c7 04 24 01 00 00 00 	movl   $0x1,(%esp)
 8048cb2:	e8 1f 07 00 00       	call   80493d6 <validate>
 8048cb7:	eb 18                	jmp    8048cd1 <fizz+0x4f>
 8048cb9:	89 44 24 08          	mov    %eax,0x8(%esp)
 8048cbd:	c7 44 24 04 d8 a2 04 	movl   $0x804a2d8,0x4(%esp)
 8048cc4:	08 
 8048cc5:	c7 04 24 01 00 00 00 	movl   $0x1,(%esp)
 8048ccc:	e8 1f fd ff ff       	call   80489f0 <__printf_chk@plt>
 8048cd1:	c7 04 24 00 00 00 00 	movl   $0x0,(%esp)
 8048cd8:	e8 43 fc ff ff       	call   8048920 <exit@plt>

08048cdd <bang>:
 8048cdd:	55                   	push   %ebp
 8048cde:	89 e5                	mov    %esp,%ebp
 8048ce0:	83 ec 18             	sub    $0x18,%esp
 8048ce3:	a1 00 d2 04 08       	mov    0x804d200,%eax
 8048ce8:	3b 05 14 d2 04 08    	cmp    0x804d214,%eax
 8048cee:	75 26                	jne    8048d16 <bang+0x39>
 8048cf0:	89 44 24 08          	mov    %eax,0x8(%esp)
 8048cf4:	c7 44 24 04 f8 a2 04 	movl   $0x804a2f8,0x4(%esp)
 8048cfb:	08 
 8048cfc:	c7 04 24 01 00 00 00 	movl   $0x1,(%esp)
 8048d03:	e8 e8 fc ff ff       	call   80489f0 <__printf_chk@plt>
 8048d08:	c7 04 24 02 00 00 00 	movl   $0x2,(%esp)
 8048d0f:	e8 c2 06 00 00       	call   80493d6 <validate>
 8048d14:	eb 18                	jmp    8048d2e <bang+0x51>
 8048d16:	89 44 24 08          	mov    %eax,0x8(%esp)
 8048d1a:	c7 44 24 04 d8 a4 04 	movl   $0x804a4d8,0x4(%esp)
 8048d21:	08 
 8048d22:	c7 04 24 01 00 00 00 	movl   $0x1,(%esp)
 8048d29:	e8 c2 fc ff ff       	call   80489f0 <__printf_chk@plt>
 8048d2e:	c7 04 24 00 00 00 00 	movl   $0x0,(%esp)
 8048d35:	e8 e6 fb ff ff       	call   8048920 <exit@plt>

08048d3a <Gets>:
 8048d3a:	55                   	push   %ebp
 8048d3b:	89 e5                	mov    %esp,%ebp
 8048d3d:	57                   	push   %edi
 8048d3e:	56                   	push   %esi
 8048d3f:	53                   	push   %ebx
 8048d40:	83 ec 1c             	sub    $0x1c,%esp
 8048d43:	8b 75 08             	mov    0x8(%ebp),%esi
 8048d46:	c7 05 fc d1 04 08 00 	movl   $0x0,0x804d1fc
 8048d4d:	00 00 00 
 8048d50:	89 f3                	mov    %esi,%ebx
 8048d52:	eb 49                	jmp    8048d9d <Gets+0x63>
 8048d54:	83 c3 01             	add    $0x1,%ebx
 8048d57:	88 53 ff             	mov    %dl,-0x1(%ebx)
 8048d5a:	a1 fc d1 04 08       	mov    0x804d1fc,%eax
 8048d5f:	3d ff 03 00 00       	cmp    $0x3ff,%eax
 8048d64:	7f 37                	jg     8048d9d <Gets+0x63>
 8048d66:	8d 3c 40             	lea    (%eax,%eax,2),%edi
 8048d69:	89 d1                	mov    %edx,%ecx
 8048d6b:	c0 e9 04             	shr    $0x4,%cl
 8048d6e:	0f be c9             	movsbl %cl,%ecx
 8048d71:	0f b6 89 b4 a5 04 08 	movzbl 0x804a5b4(%ecx),%ecx
 8048d78:	88 8f 60 d2 04 08    	mov    %cl,0x804d260(%edi)
 8048d7e:	83 e2 0f             	and    $0xf,%edx
 8048d81:	0f b6 92 b4 a5 04 08 	movzbl 0x804a5b4(%edx),%edx
 8048d88:	88 97 61 d2 04 08    	mov    %dl,0x804d261(%edi)
 8048d8e:	c6 87 62 d2 04 08 20 	movb   $0x20,0x804d262(%edi)
 8048d95:	83 c0 01             	add    $0x1,%eax
 8048d98:	a3 fc d1 04 08       	mov    %eax,0x804d1fc
 8048d9d:	a1 18 d2 04 08       	mov    0x804d218,%eax
 8048da2:	89 04 24             	mov    %eax,(%esp)
 8048da5:	e8 c6 fa ff ff       	call   8048870 <_IO_getc@plt>
 8048daa:	89 c2                	mov    %eax,%edx
 8048dac:	83 f8 ff             	cmp    $0xffffffff,%eax
 8048daf:	74 05                	je     8048db6 <Gets+0x7c>
 8048db1:	83 f8 0a             	cmp    $0xa,%eax
 8048db4:	75 9e                	jne    8048d54 <Gets+0x1a>
 8048db6:	c6 03 00             	movb   $0x0,(%ebx)
 8048db9:	a1 fc d1 04 08       	mov    0x804d1fc,%eax
 8048dbe:	c6 84 40 60 d2 04 08 	movb   $0x0,0x804d260(%eax,%eax,2)
 8048dc5:	00 
 8048dc6:	89 f0                	mov    %esi,%eax
 8048dc8:	83 c4 1c             	add    $0x1c,%esp
 8048dcb:	5b                   	pop    %ebx
 8048dcc:	5e                   	pop    %esi
 8048dcd:	5f                   	pop    %edi
 8048dce:	5d                   	pop    %ebp
 8048dcf:	c3                   	ret    

08048dd0 <removeFile>:
 8048dd0:	55                   	push   %ebp
 8048dd1:	89 e5                	mov    %esp,%ebp
 8048dd3:	83 ec 18             	sub    $0x18,%esp
 8048dd6:	8b 45 08             	mov    0x8(%ebp),%eax
 8048dd9:	89 04 24             	mov    %eax,(%esp)
 8048ddc:	e8 9f fa ff ff       	call   8048880 <unlink@plt>
 8048de1:	c9                   	leave  
 8048de2:	c3                   	ret    

08048de3 <createFile>:
 8048de3:	55                   	push   %ebp
 8048de4:	89 e5                	mov    %esp,%ebp
 8048de6:	83 ec 18             	sub    $0x18,%esp
 8048de9:	c7 44 24 04 80 01 00 	movl   $0x180,0x4(%esp)
 8048df0:	00 
 8048df1:	8b 45 08             	mov    0x8(%ebp),%eax
 8048df4:	89 04 24             	mov    %eax,(%esp)
 8048df7:	e8 94 fb ff ff       	call   8048990 <creat@plt>
 8048dfc:	c9                   	leave  
 8048dfd:	c3                   	ret    

08048dfe <uniqueval>:
 8048dfe:	55                   	push   %ebp
 8048dff:	89 e5                	mov    %esp,%ebp
 8048e01:	83 ec 18             	sub    $0x18,%esp
 8048e04:	e8 b7 fa ff ff       	call   80488c0 <getpid@plt>
 8048e09:	89 04 24             	mov    %eax,(%esp)
 8048e0c:	e8 2f fa ff ff       	call   8048840 <srandom@plt>
 8048e11:	e8 0a fc ff ff       	call   8048a20 <random@plt>
 8048e16:	c9                   	leave  
 8048e17:	c3                   	ret    

08048e18 <test>:
 8048e18:	55                   	push   %ebp
 8048e19:	89 e5                	mov    %esp,%ebp
 8048e1b:	53                   	push   %ebx
 8048e1c:	83 ec 74             	sub    $0x74,%esp
 8048e1f:	e8 da ff ff ff       	call   8048dfe <uniqueval>
 8048e24:	89 45 f4             	mov    %eax,-0xc(%ebp)
 8048e27:	e8 c7 04 00 00       	call   80492f3 <getbuf>
 8048e2c:	89 c3                	mov    %eax,%ebx
 8048e2e:	e8 cb ff ff ff       	call   8048dfe <uniqueval>
 8048e33:	8b 55 f4             	mov    -0xc(%ebp),%edx
 8048e36:	39 d0                	cmp    %edx,%eax
 8048e38:	74 11                	je     8048e4b <test+0x33>
 8048e3a:	c7 04 24 20 a3 04 08 	movl   $0x804a320,(%esp)
 8048e41:	e8 9a fa ff ff       	call   80488e0 <puts@plt>
 8048e46:	e9 ba 00 00 00       	jmp    8048f05 <test+0xed>
 8048e4b:	3b 1d 14 d2 04 08    	cmp    0x804d214,%ebx
 8048e51:	0f 85 96 00 00 00    	jne    8048eed <test+0xd5>
 8048e57:	89 5c 24 08          	mov    %ebx,0x8(%esp)
 8048e5b:	c7 44 24 04 f6 a4 04 	movl   $0x804a4f6,0x4(%esp)
 8048e62:	08 
 8048e63:	c7 04 24 01 00 00 00 	movl   $0x1,(%esp)
 8048e6a:	e8 81 fb ff ff       	call   80489f0 <__printf_chk@plt>
 8048e6f:	8d 45 9c             	lea    -0x64(%ebp),%eax
 8048e72:	89 44 24 08          	mov    %eax,0x8(%esp)
 8048e76:	c7 44 24 04 c0 c0 04 	movl   $0x804c0c0,0x4(%esp)
 8048e7d:	08 
 8048e7e:	c7 04 24 03 00 00 00 	movl   $0x3,(%esp)
 8048e85:	e8 06 fa ff ff       	call   8048890 <__xstat@plt>
 8048e8a:	85 c0                	test   %eax,%eax
 8048e8c:	75 35                	jne    8048ec3 <test+0xab>
 8048e8e:	8b 45 ac             	mov    -0x54(%ebp),%eax
 8048e91:	25 00 f0 00 00       	and    $0xf000,%eax
 8048e96:	3d 00 80 00 00       	cmp    $0x8000,%eax
 8048e9b:	75 26                	jne    8048ec3 <test+0xab>
 8048e9d:	c7 04 24 4c a3 04 08 	movl   $0x804a34c,(%esp)
 8048ea4:	e8 37 fa ff ff       	call   80488e0 <puts@plt>
 8048ea9:	c7 04 24 c0 c0 04 08 	movl   $0x804c0c0,(%esp)
 8048eb0:	e8 cb f9 ff ff       	call   8048880 <unlink@plt>
 8048eb5:	c7 04 24 04 00 00 00 	movl   $0x4,(%esp)
 8048ebc:	e8 15 05 00 00       	call   80493d6 <validate>
 8048ec1:	eb 42                	jmp    8048f05 <test+0xed>
 8048ec3:	c7 44 24 08 c0 c0 04 	movl   $0x804c0c0,0x8(%esp)
 8048eca:	08 
 8048ecb:	c7 44 24 04 7c a3 04 	movl   $0x804a37c,0x4(%esp)
 8048ed2:	08 
 8048ed3:	c7 04 24 01 00 00 00 	movl   $0x1,(%esp)
 8048eda:	e8 11 fb ff ff       	call   80489f0 <__printf_chk@plt>
 8048edf:	c7 04 24 03 00 00 00 	movl   $0x3,(%esp)
 8048ee6:	e8 eb 04 00 00       	call   80493d6 <validate>
 8048eeb:	eb 18                	jmp    8048f05 <test+0xed>
 8048eed:	89 5c 24 08          	mov    %ebx,0x8(%esp)
 8048ef1:	c7 44 24 04 13 a5 04 	movl   $0x804a513,0x4(%esp)
 8048ef8:	08 
 8048ef9:	c7 04 24 01 00 00 00 	movl   $0x1,(%esp)
 8048f00:	e8 eb fa ff ff       	call   80489f0 <__printf_chk@plt>
 8048f05:	83 c4 74             	add    $0x74,%esp
 8048f08:	5b                   	pop    %ebx
 8048f09:	5d                   	pop    %ebp
 8048f0a:	c3                   	ret    

08048f0b <testn>:
 8048f0b:	55                   	push   %ebp
 8048f0c:	89 e5                	mov    %esp,%ebp
 8048f0e:	53                   	push   %ebx
 8048f0f:	83 ec 24             	sub    $0x24,%esp
 8048f12:	e8 e7 fe ff ff       	call   8048dfe <uniqueval>
 8048f17:	89 45 f4             	mov    %eax,-0xc(%ebp)
 8048f1a:	e8 fa 03 00 00       	call   8049319 <getbufn>
 8048f1f:	89 c3                	mov    %eax,%ebx
 8048f21:	e8 d8 fe ff ff       	call   8048dfe <uniqueval>
 8048f26:	8b 55 f4             	mov    -0xc(%ebp),%edx
 8048f29:	39 d0                	cmp    %edx,%eax
 8048f2b:	74 0e                	je     8048f3b <testn+0x30>
 8048f2d:	c7 04 24 20 a3 04 08 	movl   $0x804a320,(%esp)
 8048f34:	e8 a7 f9 ff ff       	call   80488e0 <puts@plt>
 8048f39:	eb 46                	jmp    8048f81 <testn+0x76>
 8048f3b:	3b 1d 14 d2 04 08    	cmp    0x804d214,%ebx
 8048f41:	75 26                	jne    8048f69 <testn+0x5e>
 8048f43:	89 5c 24 08          	mov    %ebx,0x8(%esp)
 8048f47:	c7 44 24 04 a8 a3 04 	movl   $0x804a3a8,0x4(%esp)
 8048f4e:	08 
 8048f4f:	c7 04 24 01 00 00 00 	movl   $0x1,(%esp)
 8048f56:	e8 95 fa ff ff       	call   80489f0 <__printf_chk@plt>
 8048f5b:	c7 04 24 05 00 00 00 	movl   $0x5,(%esp)
 8048f62:	e8 6f 04 00 00       	call   80493d6 <validate>
 8048f67:	eb 18                	jmp    8048f81 <testn+0x76>
 8048f69:	89 5c 24 08          	mov    %ebx,0x8(%esp)
 8048f6d:	c7 44 24 04 2e a5 04 	movl   $0x804a52e,0x4(%esp)
 8048f74:	08 
 8048f75:	c7 04 24 01 00 00 00 	movl   $0x1,(%esp)
 8048f7c:	e8 6f fa ff ff       	call   80489f0 <__printf_chk@plt>
 8048f81:	83 c4 24             	add    $0x24,%esp
 8048f84:	5b                   	pop    %ebx
 8048f85:	5d                   	pop    %ebp
 8048f86:	c3                   	ret    

08048f87 <launch>:
 8048f87:	55                   	push   %ebp
 8048f88:	89 e5                	mov    %esp,%ebp
 8048f8a:	53                   	push   %ebx
 8048f8b:	83 ec 54             	sub    $0x54,%esp
 8048f8e:	89 c3                	mov    %eax,%ebx
 8048f90:	8d 4d b8             	lea    -0x48(%ebp),%ecx
 8048f93:	81 e1 f0 3f 00 00    	and    $0x3ff0,%ecx
 8048f99:	8d 44 11 1e          	lea    0x1e(%ecx,%edx,1),%eax
 8048f9d:	83 e0 f0             	and    $0xfffffff0,%eax
 8048fa0:	29 c4                	sub    %eax,%esp
 8048fa2:	8d 44 24 1b          	lea    0x1b(%esp),%eax
 8048fa6:	83 e0 f0             	and    $0xfffffff0,%eax
 8048fa9:	89 4c 24 08          	mov    %ecx,0x8(%esp)
 8048fad:	c7 44 24 04 f4 00 00 	movl   $0xf4,0x4(%esp)
 8048fb4:	00 
 8048fb5:	89 04 24             	mov    %eax,(%esp)
 8048fb8:	e8 f3 f9 ff ff       	call   80489b0 <memset@plt>
 8048fbd:	c7 44 24 04 4a a5 04 	movl   $0x804a54a,0x4(%esp)
 8048fc4:	08 
 8048fc5:	c7 04 24 01 00 00 00 	movl   $0x1,(%esp)
 8048fcc:	e8 1f fa ff ff       	call   80489f0 <__printf_chk@plt>
 8048fd1:	85 db                	test   %ebx,%ebx
 8048fd3:	74 0d                	je     8048fe2 <launch+0x5b>
 8048fd5:	e8 31 ff ff ff       	call   8048f0b <testn>
 8048fda:	8d b6 00 00 00 00    	lea    0x0(%esi),%esi
 8048fe0:	eb 05                	jmp    8048fe7 <launch+0x60>
 8048fe2:	e8 31 fe ff ff       	call   8048e18 <test>
 8048fe7:	83 3d 04 d2 04 08 00 	cmpl   $0x0,0x804d204
 8048fee:	75 16                	jne    8049006 <launch+0x7f>
 8048ff0:	c7 04 24 3c a4 04 08 	movl   $0x804a43c,(%esp)
 8048ff7:	e8 e4 f8 ff ff       	call   80488e0 <puts@plt>
 8048ffc:	c7 05 04 d2 04 08 00 	movl   $0x0,0x804d204
 8049003:	00 00 00 
 8049006:	8b 5d fc             	mov    -0x4(%ebp),%ebx
 8049009:	c9                   	leave  
 804900a:	c3                   	ret    

0804900b <launcher>:
 804900b:	55                   	push   %ebp
 804900c:	89 e5                	mov    %esp,%ebp
 804900e:	83 ec 28             	sub    $0x28,%esp
 8049011:	8b 45 08             	mov    0x8(%ebp),%eax
 8049014:	a3 f8 d1 04 08       	mov    %eax,0x804d1f8
 8049019:	8b 45 0c             	mov    0xc(%ebp),%eax
 804901c:	a3 f4 d1 04 08       	mov    %eax,0x804d1f4
 8049021:	c7 44 24 14 00 00 00 	movl   $0x0,0x14(%esp)
 8049028:	00 
 8049029:	c7 44 24 10 00 00 00 	movl   $0x0,0x10(%esp)
 8049030:	00 
 8049031:	c7 44 24 0c 32 01 00 	movl   $0x132,0xc(%esp)
 8049038:	00 
 8049039:	c7 44 24 08 07 00 00 	movl   $0x7,0x8(%esp)
 8049040:	00 
 8049041:	c7 44 24 04 00 00 10 	movl   $0x100000,0x4(%esp)
 8049048:	00 
 8049049:	c7 04 24 00 60 58 55 	movl   $0x55586000,(%esp)
 8049050:	e8 eb f8 ff ff       	call   8048940 <mmap@plt>
 8049055:	3d 00 60 58 55       	cmp    $0x55586000,%eax
 804905a:	74 31                	je     804908d <launcher+0x82>
 804905c:	a1 e0 d1 04 08       	mov    0x804d1e0,%eax
 8049061:	89 44 24 0c          	mov    %eax,0xc(%esp)
 8049065:	c7 44 24 08 47 00 00 	movl   $0x47,0x8(%esp)
 804906c:	00 
 804906d:	c7 44 24 04 01 00 00 	movl   $0x1,0x4(%esp)
 8049074:	00 
 8049075:	c7 04 24 c8 a3 04 08 	movl   $0x804a3c8,(%esp)
 804907c:	e8 1f f8 ff ff       	call   80488a0 <fwrite@plt>
 8049081:	c7 04 24 01 00 00 00 	movl   $0x1,(%esp)
 8049088:	e8 93 f8 ff ff       	call   8048920 <exit@plt>
 804908d:	c7 05 40 d2 04 08 f8 	movl   $0x55685ff8,0x804d240
 8049094:	5f 68 55 
 8049097:	ba f8 5f 68 55       	mov    $0x55685ff8,%edx
 804909c:	89 e0                	mov    %esp,%eax
 804909e:	89 d4                	mov    %edx,%esp
 80490a0:	89 c2                	mov    %eax,%edx
 80490a2:	89 15 f0 d1 04 08    	mov    %edx,0x804d1f0
 80490a8:	8b 15 f4 d1 04 08    	mov    0x804d1f4,%edx
 80490ae:	a1 f8 d1 04 08       	mov    0x804d1f8,%eax
 80490b3:	e8 cf fe ff ff       	call   8048f87 <launch>
 80490b8:	a1 f0 d1 04 08       	mov    0x804d1f0,%eax
 80490bd:	89 c4                	mov    %eax,%esp
 80490bf:	c7 44 24 04 00 00 10 	movl   $0x100000,0x4(%esp)
 80490c6:	00 
 80490c7:	c7 04 24 00 60 58 55 	movl   $0x55586000,(%esp)
 80490ce:	e8 2d f9 ff ff       	call   8048a00 <munmap@plt>
 80490d3:	c9                   	leave  
 80490d4:	c3                   	ret    

080490d5 <main>:
 80490d5:	55                   	push   %ebp
 80490d6:	89 e5                	mov    %esp,%ebp
 80490d8:	57                   	push   %edi
 80490d9:	56                   	push   %esi
 80490da:	53                   	push   %ebx
 80490db:	83 e4 f0             	and    $0xfffffff0,%esp
 80490de:	83 ec 20             	sub    $0x20,%esp
 80490e1:	8b 75 08             	mov    0x8(%ebp),%esi
 80490e4:	8b 5d 0c             	mov    0xc(%ebp),%ebx
 80490e7:	c7 44 24 04 aa 8b 04 	movl   $0x8048baa,0x4(%esp)
 80490ee:	08 
 80490ef:	c7 04 24 0b 00 00 00 	movl   $0xb,(%esp)
 80490f6:	e8 55 f7 ff ff       	call   8048850 <signal@plt>
 80490fb:	c7 44 24 04 80 8b 04 	movl   $0x8048b80,0x4(%esp)
 8049102:	08 
 8049103:	c7 04 24 07 00 00 00 	movl   $0x7,(%esp)
 804910a:	e8 41 f7 ff ff       	call   8048850 <signal@plt>
 804910f:	c7 44 24 04 d4 8b 04 	movl   $0x8048bd4,0x4(%esp)
 8049116:	08 
 8049117:	c7 04 24 04 00 00 00 	movl   $0x4,(%esp)
 804911e:	e8 2d f7 ff ff       	call   8048850 <signal@plt>
 8049123:	a1 e4 d1 04 08       	mov    0x804d1e4,%eax
 8049128:	a3 18 d2 04 08       	mov    %eax,0x804d218
 804912d:	bf 01 00 00 00       	mov    $0x1,%edi
 8049132:	c7 44 24 1c 00 00 00 	movl   $0x0,0x1c(%esp)
 8049139:	00 
 804913a:	e9 a3 00 00 00       	jmp    80491e2 <main+0x10d>
 804913f:	83 e8 67             	sub    $0x67,%eax
 8049142:	3c 0e                	cmp    $0xe,%al
 8049144:	0f 87 91 00 00 00    	ja     80491db <main+0x106>
 804914a:	0f b6 c0             	movzbl %al,%eax
 804914d:	ff 24 85 78 a5 04 08 	jmp    *0x804a578(,%eax,4)
 8049154:	c7 44 24 1c 01 00 00 	movl   $0x1,0x1c(%esp)
 804915b:	00 
 804915c:	bf 05 00 00 00       	mov    $0x5,%edi
 8049161:	eb 7f                	jmp    80491e2 <main+0x10d>
 8049163:	8b 03                	mov    (%ebx),%eax
 8049165:	e8 94 fa ff ff       	call   8048bfe <usage>
 804916a:	a1 e8 d1 04 08       	mov    0x804d1e8,%eax
 804916f:	89 04 24             	mov    %eax,(%esp)
 8049172:	e8 49 f8 ff ff       	call   80489c0 <__strdup@plt>
 8049177:	a3 24 d2 04 08       	mov    %eax,0x804d224
 804917c:	89 04 24             	mov    %eax,(%esp)
 804917f:	e8 ab 0f 00 00       	call   804a12f <gencookie>
 8049184:	a3 14 d2 04 08       	mov    %eax,0x804d214
 8049189:	89 c2                	mov    %eax,%edx
 804918b:	83 e2 3f             	and    $0x3f,%edx
 804918e:	83 c2 20             	add    $0x20,%edx
 8049191:	89 15 10 d2 04 08    	mov    %edx,0x804d210
 8049197:	83 e0 7f             	and    $0x7f,%eax
 804919a:	05 00 02 00 00       	add    $0x200,%eax
 804919f:	a3 0c d2 04 08       	mov    %eax,0x804d20c
 80491a4:	c7 04 24 c0 c0 04 08 	movl   $0x804c0c0,(%esp)
 80491ab:	e8 d0 f7 ff ff       	call   8048980 <mkstemp@plt>
 80491b0:	a3 08 d2 04 08       	mov    %eax,0x804d208
 80491b5:	c7 04 24 c0 c0 04 08 	movl   $0x804c0c0,(%esp)
 80491bc:	e8 bf f6 ff ff       	call   8048880 <unlink@plt>
 80491c1:	eb 1f                	jmp    80491e2 <main+0x10d>
 80491c3:	c7 05 20 d2 04 08 01 	movl   $0x1,0x804d220
 80491ca:	00 00 00 
 80491cd:	eb 13                	jmp    80491e2 <main+0x10d>
 80491cf:	c7 05 1c d2 04 08 01 	movl   $0x1,0x804d21c
 80491d6:	00 00 00 
 80491d9:	eb 07                	jmp    80491e2 <main+0x10d>
 80491db:	8b 03                	mov    (%ebx),%eax
 80491dd:	e8 1c fa ff ff       	call   8048bfe <usage>
 80491e2:	c7 44 24 08 57 a5 04 	movl   $0x804a557,0x8(%esp)
 80491e9:	08 
 80491ea:	89 5c 24 04          	mov    %ebx,0x4(%esp)
 80491ee:	89 34 24             	mov    %esi,(%esp)
 80491f1:	e8 7a f7 ff ff       	call   8048970 <getopt@plt>
 80491f6:	3c ff                	cmp    $0xff,%al
 80491f8:	0f 85 41 ff ff ff    	jne    804913f <main+0x6a>
 80491fe:	83 3d 24 d2 04 08 00 	cmpl   $0x0,0x804d224
 8049205:	75 21                	jne    8049228 <main+0x153>
 8049207:	8b 03                	mov    (%ebx),%eax
 8049209:	89 44 24 08          	mov    %eax,0x8(%esp)
 804920d:	c7 44 24 04 10 a4 04 	movl   $0x804a410,0x4(%esp)
 8049214:	08 
 8049215:	c7 04 24 01 00 00 00 	movl   $0x1,(%esp)
 804921c:	e8 cf f7 ff ff       	call   80489f0 <__printf_chk@plt>
 8049221:	8b 03                	mov    (%ebx),%eax
 8049223:	e8 d6 f9 ff ff       	call   8048bfe <usage>
 8049228:	e8 12 01 00 00       	call   804933f <initialize_bomb>
 804922d:	a1 24 d2 04 08       	mov    0x804d224,%eax
 8049232:	89 44 24 08          	mov    %eax,0x8(%esp)
 8049236:	c7 44 24 04 5e a5 04 	movl   $0x804a55e,0x4(%esp)
 804923d:	08 
 804923e:	c7 04 24 01 00 00 00 	movl   $0x1,(%esp)
 8049245:	e8 a6 f7 ff ff       	call   80489f0 <__printf_chk@plt>
 804924a:	a1 14 d2 04 08       	mov    0x804d214,%eax
 804924f:	89 44 24 08          	mov    %eax,0x8(%esp)
 8049253:	c7 44 24 04 6a a5 04 	movl   $0x804a56a,0x4(%esp)
 804925a:	08 
 804925b:	c7 04 24 01 00 00 00 	movl   $0x1,(%esp)
 8049262:	e8 89 f7 ff ff       	call   80489f0 <__printf_chk@plt>
 8049267:	a1 14 d2 04 08       	mov    0x804d214,%eax
 804926c:	89 04 24             	mov    %eax,(%esp)
 804926f:	e8 cc f5 ff ff       	call   8048840 <srandom@plt>
 8049274:	e8 a7 f7 ff ff       	call   8048a20 <random@plt>
 8049279:	25 f0 0f 00 00       	and    $0xff0,%eax
 804927e:	05 00 01 00 00       	add    $0x100,%eax
 8049283:	89 44 24 18          	mov    %eax,0x18(%esp)
 8049287:	c7 44 24 04 04 00 00 	movl   $0x4,0x4(%esp)
 804928e:	00 
 804928f:	89 3c 24             	mov    %edi,(%esp)
 8049292:	e8 c9 f7 ff ff       	call   8048a60 <calloc@plt>
 8049297:	89 c6                	mov    %eax,%esi
 8049299:	c7 00 00 00 00 00    	movl   $0x0,(%eax)
 804929f:	bb 01 00 00 00       	mov    $0x1,%ebx
 80492a4:	eb 17                	jmp    80492bd <main+0x1e8>
 80492a6:	e8 75 f7 ff ff       	call   8048a20 <random@plt>
 80492ab:	25 f0 00 00 00       	and    $0xf0,%eax
 80492b0:	b9 80 00 00 00       	mov    $0x80,%ecx
 80492b5:	29 c1                	sub    %eax,%ecx
 80492b7:	89 0c 9e             	mov    %ecx,(%esi,%ebx,4)
 80492ba:	83 c3 01             	add    $0x1,%ebx
 80492bd:	39 fb                	cmp    %edi,%ebx
 80492bf:	7c e5                	jl     80492a6 <main+0x1d1>
 80492c1:	bb 00 00 00 00       	mov    $0x0,%ebx
 80492c6:	eb 1a                	jmp    80492e2 <main+0x20d>
 80492c8:	8b 44 24 18          	mov    0x18(%esp),%eax
 80492cc:	03 04 9e             	add    (%esi,%ebx,4),%eax
 80492cf:	89 44 24 04          	mov    %eax,0x4(%esp)
 80492d3:	8b 44 24 1c          	mov    0x1c(%esp),%eax
 80492d7:	89 04 24             	mov    %eax,(%esp)
 80492da:	e8 2c fd ff ff       	call   804900b <launcher>
 80492df:	83 c3 01             	add    $0x1,%ebx
 80492e2:	39 fb                	cmp    %edi,%ebx
 80492e4:	7c e2                	jl     80492c8 <main+0x1f3>
 80492e6:	b8 00 00 00 00       	mov    $0x0,%eax
 80492eb:	8d 65 f4             	lea    -0xc(%ebp),%esp
 80492ee:	5b                   	pop    %ebx
 80492ef:	5e                   	pop    %esi
 80492f0:	5f                   	pop    %edi
 80492f1:	5d                   	pop    %ebp
 80492f2:	c3                   	ret    

080492f3 <getbuf>:
 80492f3:	55                   	push   %ebp
 80492f4:	89 e5                	mov    %esp,%ebp
 80492f6:	83 ec 18             	sub    $0x18,%esp
 80492f9:	a1 10 d2 04 08       	mov    0x804d210,%eax
 80492fe:	83 c0 0f             	add    $0xf,%eax
 8049301:	83 e0 f0             	and    $0xfffffff0,%eax
 8049304:	29 c4                	sub    %eax,%esp
 8049306:	8d 44 24 04          	lea    0x4(%esp),%eax
 804930a:	89 04 24             	mov    %eax,(%esp)
 804930d:	e8 28 fa ff ff       	call   8048d3a <Gets>
 8049312:	b8 01 00 00 00       	mov    $0x1,%eax
 8049317:	c9                   	leave  
 8049318:	c3                   	ret    

08049319 <getbufn>:
 8049319:	55                   	push   %ebp
 804931a:	89 e5                	mov    %esp,%ebp
 804931c:	83 ec 18             	sub    $0x18,%esp
 804931f:	a1 0c d2 04 08       	mov    0x804d20c,%eax
 8049324:	83 c0 0f             	add    $0xf,%eax
 8049327:	83 e0 f0             	and    $0xfffffff0,%eax
 804932a:	29 c4                	sub    %eax,%esp
 804932c:	8d 44 24 04          	lea    0x4(%esp),%eax
 8049330:	89 04 24             	mov    %eax,(%esp)
 8049333:	e8 02 fa ff ff       	call   8048d3a <Gets>
 8049338:	b8 01 00 00 00       	mov    $0x1,%eax
 804933d:	c9                   	leave  
 804933e:	c3                   	ret    

0804933f <initialize_bomb>:
 804933f:	55                   	push   %ebp
 8049340:	89 e5                	mov    %esp,%ebp
 8049342:	81 ec 18 24 00 00    	sub    $0x2418,%esp
 8049348:	83 3d 1c d2 04 08 00 	cmpl   $0x0,0x804d21c
 804934f:	74 0c                	je     804935d <initialize_bomb+0x1e>
 8049351:	c7 04 24 ff ff ff ff 	movl   $0xffffffff,(%esp)
 8049358:	e8 d1 0a 00 00       	call   8049e2e <init_timeout>
 804935d:	83 3d 20 d2 04 08 00 	cmpl   $0x0,0x804d220
 8049364:	74 6e                	je     80493d4 <initialize_bomb+0x95>
 8049366:	c7 44 24 04 00 04 00 	movl   $0x400,0x4(%esp)
 804936d:	00 
 804936e:	8d 85 f8 fb ff ff    	lea    -0x408(%ebp),%eax
 8049374:	89 04 24             	mov    %eax,(%esp)
 8049377:	e8 54 f5 ff ff       	call   80488d0 <gethostname@plt>
 804937c:	85 c0                	test   %eax,%eax
 804937e:	74 18                	je     8049398 <initialize_bomb+0x59>
 8049380:	c7 04 24 c4 a5 04 08 	movl   $0x804a5c4,(%esp)
 8049387:	e8 54 f5 ff ff       	call   80488e0 <puts@plt>
 804938c:	c7 04 24 08 00 00 00 	movl   $0x8,(%esp)
 8049393:	e8 88 f5 ff ff       	call   8048920 <exit@plt>
 8049398:	8d 85 f8 db ff ff    	lea    -0x2408(%ebp),%eax
 804939e:	89 04 24             	mov    %eax,(%esp)
 80493a1:	e8 c2 0a 00 00       	call   8049e68 <init_driver>
 80493a6:	85 c0                	test   %eax,%eax
 80493a8:	79 2a                	jns    80493d4 <initialize_bomb+0x95>
 80493aa:	8d 85 f8 db ff ff    	lea    -0x2408(%ebp),%eax
 80493b0:	89 44 24 08          	mov    %eax,0x8(%esp)
 80493b4:	c7 44 24 04 f6 a6 04 	movl   $0x804a6f6,0x4(%esp)
 80493bb:	08 
 80493bc:	c7 04 24 01 00 00 00 	movl   $0x1,(%esp)
 80493c3:	e8 28 f6 ff ff       	call   80489f0 <__printf_chk@plt>
 80493c8:	c7 04 24 08 00 00 00 	movl   $0x8,(%esp)
 80493cf:	e8 4c f5 ff ff       	call   8048920 <exit@plt>
 80493d4:	c9                   	leave  
 80493d5:	c3                   	ret    

080493d6 <validate>:
 80493d6:	55                   	push   %ebp
 80493d7:	89 e5                	mov    %esp,%ebp
 80493d9:	57                   	push   %edi
 80493da:	53                   	push   %ebx
 80493db:	81 ec 20 40 00 00    	sub    $0x4020,%esp
 80493e1:	8b 5d 08             	mov    0x8(%ebp),%ebx
 80493e4:	83 3d 24 d2 04 08 00 	cmpl   $0x0,0x804d224
 80493eb:	75 11                	jne    80493fe <validate+0x28>
 80493ed:	c7 04 24 fc a5 04 08 	movl   $0x804a5fc,(%esp)
 80493f4:	e8 e7 f4 ff ff       	call   80488e0 <puts@plt>
 80493f9:	e9 2c 01 00 00       	jmp    804952a <validate+0x154>
 80493fe:	83 fb 05             	cmp    $0x5,%ebx
 8049401:	76 11                	jbe    8049414 <validate+0x3e>
 8049403:	c7 04 24 28 a6 04 08 	movl   $0x804a628,(%esp)
 804940a:	e8 d1 f4 ff ff       	call   80488e0 <puts@plt>
 804940f:	e9 16 01 00 00       	jmp    804952a <validate+0x154>
 8049414:	c7 05 04 d2 04 08 01 	movl   $0x1,0x804d204
 804941b:	00 00 00 
 804941e:	8b 04 9d c0 c1 04 08 	mov    0x804c1c0(,%ebx,4),%eax
 8049425:	83 e8 01             	sub    $0x1,%eax
 8049428:	89 04 9d c0 c1 04 08 	mov    %eax,0x804c1c0(,%ebx,4)
 804942f:	85 c0                	test   %eax,%eax
 8049431:	7e 11                	jle    8049444 <validate+0x6e>
 8049433:	c7 04 24 0b a7 04 08 	movl   $0x804a70b,(%esp)
 804943a:	e8 a1 f4 ff ff       	call   80488e0 <puts@plt>
 804943f:	e9 e6 00 00 00       	jmp    804952a <validate+0x154>
 8049444:	c7 04 24 16 a7 04 08 	movl   $0x804a716,(%esp)
 804944b:	e8 90 f4 ff ff       	call   80488e0 <puts@plt>
 8049450:	83 3d 20 d2 04 08 00 	cmpl   $0x0,0x804d220
 8049457:	0f 84 c1 00 00 00    	je     804951e <validate+0x148>
 804945d:	bf 60 d2 04 08       	mov    $0x804d260,%edi
 8049462:	b8 00 00 00 00       	mov    $0x0,%eax
 8049467:	b9 ff ff ff ff       	mov    $0xffffffff,%ecx
 804946c:	f2 ae                	repnz scas %es:(%edi),%al
 804946e:	89 ca                	mov    %ecx,%edx
 8049470:	f7 d2                	not    %edx
 8049472:	89 d1                	mov    %edx,%ecx
 8049474:	83 c1 1f             	add    $0x1f,%ecx
 8049477:	81 f9 00 20 00 00    	cmp    $0x2000,%ecx
 804947d:	76 11                	jbe    8049490 <validate+0xba>
 804947f:	c7 04 24 50 a6 04 08 	movl   $0x804a650,(%esp)
 8049486:	e8 55 f4 ff ff       	call   80488e0 <puts@plt>
 804948b:	e9 9a 00 00 00       	jmp    804952a <validate+0x154>
 8049490:	c7 44 24 18 60 d2 04 	movl   $0x804d260,0x18(%esp)
 8049497:	08 
 8049498:	a1 14 d2 04 08       	mov    0x804d214,%eax
 804949d:	89 44 24 14          	mov    %eax,0x14(%esp)
 80494a1:	89 5c 24 10          	mov    %ebx,0x10(%esp)
 80494a5:	c7 44 24 0c 1c a7 04 	movl   $0x804a71c,0xc(%esp)
 80494ac:	08 
 80494ad:	c7 44 24 08 00 20 00 	movl   $0x2000,0x8(%esp)
 80494b4:	00 
 80494b5:	c7 44 24 04 01 00 00 	movl   $0x1,0x4(%esp)
 80494bc:	00 
 80494bd:	8d 9d f8 df ff ff    	lea    -0x2008(%ebp),%ebx
 80494c3:	89 1c 24             	mov    %ebx,(%esp)
 80494c6:	e8 a5 f5 ff ff       	call   8048a70 <__sprintf_chk@plt>
 80494cb:	8d 85 f8 bf ff ff    	lea    -0x4008(%ebp),%eax
 80494d1:	89 44 24 0c          	mov    %eax,0xc(%esp)
 80494d5:	c7 44 24 08 00 00 00 	movl   $0x0,0x8(%esp)
 80494dc:	00 
 80494dd:	89 5c 24 04          	mov    %ebx,0x4(%esp)
 80494e1:	a1 24 d2 04 08       	mov    0x804d224,%eax
 80494e6:	89 04 24             	mov    %eax,(%esp)
 80494e9:	e8 3f 0b 00 00       	call   804a02d <driver_post>
 80494ee:	85 c0                	test   %eax,%eax
 80494f0:	75 0e                	jne    8049500 <validate+0x12a>
 80494f2:	c7 04 24 88 a6 04 08 	movl   $0x804a688,(%esp)
 80494f9:	e8 e2 f3 ff ff       	call   80488e0 <puts@plt>
 80494fe:	eb 1e                	jmp    804951e <validate+0x148>
 8049500:	8d 85 f8 bf ff ff    	lea    -0x4008(%ebp),%eax
 8049506:	89 44 24 08          	mov    %eax,0x8(%esp)
 804950a:	c7 44 24 04 b8 a6 04 	movl   $0x804a6b8,0x4(%esp)
 8049511:	08 
 8049512:	c7 04 24 01 00 00 00 	movl   $0x1,(%esp)
 8049519:	e8 d2 f4 ff ff       	call   80489f0 <__printf_chk@plt>
 804951e:	c7 04 24 25 a7 04 08 	movl   $0x804a725,(%esp)
 8049525:	e8 b6 f3 ff ff       	call   80488e0 <puts@plt>
 804952a:	81 c4 20 40 00 00    	add    $0x4020,%esp
 8049530:	5b                   	pop    %ebx
 8049531:	5f                   	pop    %edi
 8049532:	5d                   	pop    %ebp
 8049533:	c3                   	ret    
 8049534:	66 90                	xchg   %ax,%ax
 8049536:	66 90                	xchg   %ax,%ax
 8049538:	66 90                	xchg   %ax,%ax
 804953a:	66 90                	xchg   %ax,%ax
 804953c:	66 90                	xchg   %ax,%ax
 804953e:	66 90                	xchg   %ax,%ax

08049540 <sigalrm_handler>:
 8049540:	55                   	push   %ebp
 8049541:	89 e5                	mov    %esp,%ebp
 8049543:	83 ec 18             	sub    $0x18,%esp
 8049546:	c7 44 24 08 02 00 00 	movl   $0x2,0x8(%esp)
 804954d:	00 
 804954e:	c7 44 24 04 38 a7 04 	movl   $0x804a738,0x4(%esp)
 8049555:	08 
 8049556:	c7 04 24 01 00 00 00 	movl   $0x1,(%esp)
 804955d:	e8 8e f4 ff ff       	call   80489f0 <__printf_chk@plt>
 8049562:	c7 04 24 01 00 00 00 	movl   $0x1,(%esp)
 8049569:	e8 b2 f3 ff ff       	call   8048920 <exit@plt>

0804956e <rio_readlineb>:
 804956e:	55                   	push   %ebp
 804956f:	89 e5                	mov    %esp,%ebp
 8049571:	57                   	push   %edi
 8049572:	56                   	push   %esi
 8049573:	53                   	push   %ebx
 8049574:	83 ec 4c             	sub    $0x4c,%esp
 8049577:	89 55 d0             	mov    %edx,-0x30(%ebp)
 804957a:	83 f9 01             	cmp    $0x1,%ecx
 804957d:	0f 86 c8 00 00 00    	jbe    804964b <rio_readlineb+0xdd>
 8049583:	89 c3                	mov    %eax,%ebx
 8049585:	89 4d c4             	mov    %ecx,-0x3c(%ebp)
 8049588:	c7 45 d4 01 00 00 00 	movl   $0x1,-0x2c(%ebp)
 804958f:	8d 78 0c             	lea    0xc(%eax),%edi
 8049592:	eb 38                	jmp    80495cc <rio_readlineb+0x5e>
 8049594:	c7 44 24 08 00 20 00 	movl   $0x2000,0x8(%esp)
 804959b:	00 
 804959c:	89 7c 24 04          	mov    %edi,0x4(%esp)
 80495a0:	8b 03                	mov    (%ebx),%eax
 80495a2:	89 04 24             	mov    %eax,(%esp)
 80495a5:	e8 86 f2 ff ff       	call   8048830 <read@plt>
 80495aa:	89 43 04             	mov    %eax,0x4(%ebx)
 80495ad:	85 c0                	test   %eax,%eax
 80495af:	79 14                	jns    80495c5 <rio_readlineb+0x57>
 80495b1:	e8 1a f4 ff ff       	call   80489d0 <__errno_location@plt>
 80495b6:	83 38 04             	cmpl   $0x4,(%eax)
 80495b9:	74 11                	je     80495cc <rio_readlineb+0x5e>
 80495bb:	90                   	nop
 80495bc:	8d 74 26 00          	lea    0x0(%esi,%eiz,1),%esi
 80495c0:	e9 98 00 00 00       	jmp    804965d <rio_readlineb+0xef>
 80495c5:	85 c0                	test   %eax,%eax
 80495c7:	74 6a                	je     8049633 <rio_readlineb+0xc5>
 80495c9:	89 7b 08             	mov    %edi,0x8(%ebx)
 80495cc:	8b 73 04             	mov    0x4(%ebx),%esi
 80495cf:	85 f6                	test   %esi,%esi
 80495d1:	7e c1                	jle    8049594 <rio_readlineb+0x26>
 80495d3:	85 f6                	test   %esi,%esi
 80495d5:	0f 95 c0             	setne  %al
 80495d8:	0f b6 c0             	movzbl %al,%eax
 80495db:	89 45 cc             	mov    %eax,-0x34(%ebp)
 80495de:	8b 4b 08             	mov    0x8(%ebx),%ecx
 80495e1:	c7 44 24 0c 01 00 00 	movl   $0x1,0xc(%esp)
 80495e8:	00 
 80495e9:	89 44 24 08          	mov    %eax,0x8(%esp)
 80495ed:	89 4d c8             	mov    %ecx,-0x38(%ebp)
 80495f0:	89 4c 24 04          	mov    %ecx,0x4(%esp)
 80495f4:	8d 55 e7             	lea    -0x19(%ebp),%edx
 80495f7:	89 14 24             	mov    %edx,(%esp)
 80495fa:	e8 01 f3 ff ff       	call   8048900 <__memcpy_chk@plt>
 80495ff:	8b 4d c8             	mov    -0x38(%ebp),%ecx
 8049602:	8b 55 cc             	mov    -0x34(%ebp),%edx
 8049605:	01 d1                	add    %edx,%ecx
 8049607:	89 4b 08             	mov    %ecx,0x8(%ebx)
 804960a:	29 d6                	sub    %edx,%esi
 804960c:	89 73 04             	mov    %esi,0x4(%ebx)
 804960f:	83 fa 01             	cmp    $0x1,%edx
 8049612:	75 14                	jne    8049628 <rio_readlineb+0xba>
 8049614:	83 45 d0 01          	addl   $0x1,-0x30(%ebp)
 8049618:	0f b6 45 e7          	movzbl -0x19(%ebp),%eax
 804961c:	8b 55 d0             	mov    -0x30(%ebp),%edx
 804961f:	88 42 ff             	mov    %al,-0x1(%edx)
 8049622:	3c 0a                	cmp    $0xa,%al
 8049624:	75 17                	jne    804963d <rio_readlineb+0xcf>
 8049626:	eb 2a                	jmp    8049652 <rio_readlineb+0xe4>
 8049628:	83 7d cc 00          	cmpl   $0x0,-0x34(%ebp)
 804962c:	75 36                	jne    8049664 <rio_readlineb+0xf6>
 804962e:	8b 45 d4             	mov    -0x2c(%ebp),%eax
 8049631:	eb 03                	jmp    8049636 <rio_readlineb+0xc8>
 8049633:	8b 45 d4             	mov    -0x2c(%ebp),%eax
 8049636:	83 f8 01             	cmp    $0x1,%eax
 8049639:	75 17                	jne    8049652 <rio_readlineb+0xe4>
 804963b:	eb 2e                	jmp    804966b <rio_readlineb+0xfd>
 804963d:	83 45 d4 01          	addl   $0x1,-0x2c(%ebp)
 8049641:	8b 45 c4             	mov    -0x3c(%ebp),%eax
 8049644:	39 45 d4             	cmp    %eax,-0x2c(%ebp)
 8049647:	74 09                	je     8049652 <rio_readlineb+0xe4>
 8049649:	eb 81                	jmp    80495cc <rio_readlineb+0x5e>
 804964b:	c7 45 d4 01 00 00 00 	movl   $0x1,-0x2c(%ebp)
 8049652:	8b 45 d0             	mov    -0x30(%ebp),%eax
 8049655:	c6 00 00             	movb   $0x0,(%eax)
 8049658:	8b 45 d4             	mov    -0x2c(%ebp),%eax
 804965b:	eb 13                	jmp    8049670 <rio_readlineb+0x102>
 804965d:	b8 ff ff ff ff       	mov    $0xffffffff,%eax
 8049662:	eb 0c                	jmp    8049670 <rio_readlineb+0x102>
 8049664:	b8 ff ff ff ff       	mov    $0xffffffff,%eax
 8049669:	eb 05                	jmp    8049670 <rio_readlineb+0x102>
 804966b:	b8 00 00 00 00       	mov    $0x0,%eax
 8049670:	83 c4 4c             	add    $0x4c,%esp
 8049673:	5b                   	pop    %ebx
 8049674:	5e                   	pop    %esi
 8049675:	5f                   	pop    %edi
 8049676:	5d                   	pop    %ebp
 8049677:	c3                   	ret    

08049678 <submitr>:
 8049678:	55                   	push   %ebp
 8049679:	89 e5                	mov    %esp,%ebp
 804967b:	57                   	push   %edi
 804967c:	56                   	push   %esi
 804967d:	53                   	push   %ebx
 804967e:	81 ec 6c a0 00 00    	sub    $0xa06c,%esp
 8049684:	8b 7d 08             	mov    0x8(%ebp),%edi
 8049687:	8b 5d 1c             	mov    0x1c(%ebp),%ebx
 804968a:	c7 85 c8 7f ff ff 00 	movl   $0x0,-0x8038(%ebp)
 8049691:	00 00 00 
 8049694:	c7 44 24 08 00 00 00 	movl   $0x0,0x8(%esp)
 804969b:	00 
 804969c:	c7 44 24 04 01 00 00 	movl   $0x1,0x4(%esp)
 80496a3:	00 
 80496a4:	c7 04 24 02 00 00 00 	movl   $0x2,(%esp)
 80496ab:	e8 60 f3 ff ff       	call   8048a10 <socket@plt>
 80496b0:	89 85 b4 5f ff ff    	mov    %eax,-0xa04c(%ebp)
 80496b6:	85 c0                	test   %eax,%eax
 80496b8:	79 51                	jns    804970b <submitr+0x93>
 80496ba:	8b 45 20             	mov    0x20(%ebp),%eax
 80496bd:	c7 00 45 72 72 6f    	movl   $0x6f727245,(%eax)
 80496c3:	c7 40 04 72 3a 20 43 	movl   $0x43203a72,0x4(%eax)
 80496ca:	c7 40 08 6c 69 65 6e 	movl   $0x6e65696c,0x8(%eax)
 80496d1:	c7 40 0c 74 20 75 6e 	movl   $0x6e752074,0xc(%eax)
 80496d8:	c7 40 10 61 62 6c 65 	movl   $0x656c6261,0x10(%eax)
 80496df:	c7 40 14 20 74 6f 20 	movl   $0x206f7420,0x14(%eax)
 80496e6:	c7 40 18 63 72 65 61 	movl   $0x61657263,0x18(%eax)
 80496ed:	c7 40 1c 74 65 20 73 	movl   $0x73206574,0x1c(%eax)
 80496f4:	c7 40 20 6f 63 6b 65 	movl   $0x656b636f,0x20(%eax)
 80496fb:	66 c7 40 24 74 00    	movw   $0x74,0x24(%eax)
 8049701:	b8 ff ff ff ff       	mov    $0xffffffff,%eax
 8049706:	e9 18 07 00 00       	jmp    8049e23 <submitr+0x7ab>
 804970b:	89 3c 24             	mov    %edi,(%esp)
 804970e:	e8 1d f3 ff ff       	call   8048a30 <gethostbyname@plt>
 8049713:	85 c0                	test   %eax,%eax
 8049715:	75 3f                	jne    8049756 <submitr+0xde>
 8049717:	89 7c 24 10          	mov    %edi,0x10(%esp)
 804971b:	c7 44 24 0c 5c a7 04 	movl   $0x804a75c,0xc(%esp)
 8049722:	08 
 8049723:	c7 44 24 08 ff ff ff 	movl   $0xffffffff,0x8(%esp)
 804972a:	ff 
 804972b:	c7 44 24 04 01 00 00 	movl   $0x1,0x4(%esp)
 8049732:	00 
 8049733:	8b 45 20             	mov    0x20(%ebp),%eax
 8049736:	89 04 24             	mov    %eax,(%esp)
 8049739:	e8 32 f3 ff ff       	call   8048a70 <__sprintf_chk@plt>
 804973e:	8b 85 b4 5f ff ff    	mov    -0xa04c(%ebp),%eax
 8049744:	89 04 24             	mov    %eax,(%esp)
 8049747:	e8 04 f3 ff ff       	call   8048a50 <close@plt>
 804974c:	b8 ff ff ff ff       	mov    $0xffffffff,%eax
 8049751:	e9 cd 06 00 00       	jmp    8049e23 <submitr+0x7ab>
 8049756:	8d 75 d8             	lea    -0x28(%ebp),%esi
 8049759:	c7 45 d8 00 00 00 00 	movl   $0x0,-0x28(%ebp)
 8049760:	c7 45 dc 00 00 00 00 	movl   $0x0,-0x24(%ebp)
 8049767:	c7 45 e0 00 00 00 00 	movl   $0x0,-0x20(%ebp)
 804976e:	c7 45 e4 00 00 00 00 	movl   $0x0,-0x1c(%ebp)
 8049775:	66 c7 45 d8 02 00    	movw   $0x2,-0x28(%ebp)
 804977b:	c7 44 24 0c 0c 00 00 	movl   $0xc,0xc(%esp)
 8049782:	00 
 8049783:	8b 50 0c             	mov    0xc(%eax),%edx
 8049786:	89 54 24 08          	mov    %edx,0x8(%esp)
 804978a:	8b 40 10             	mov    0x10(%eax),%eax
 804978d:	8b 00                	mov    (%eax),%eax
 804978f:	89 44 24 04          	mov    %eax,0x4(%esp)
 8049793:	8d 45 dc             	lea    -0x24(%ebp),%eax
 8049796:	89 04 24             	mov    %eax,(%esp)
 8049799:	e8 52 f1 ff ff       	call   80488f0 <__memmove_chk@plt>
 804979e:	0f b7 45 0c          	movzwl 0xc(%ebp),%eax
 80497a2:	66 c1 c8 08          	ror    $0x8,%ax
 80497a6:	66 89 45 da          	mov    %ax,-0x26(%ebp)
 80497aa:	c7 44 24 08 10 00 00 	movl   $0x10,0x8(%esp)
 80497b1:	00 
 80497b2:	89 74 24 04          	mov    %esi,0x4(%esp)
 80497b6:	8b 85 b4 5f ff ff    	mov    -0xa04c(%ebp),%eax
 80497bc:	89 04 24             	mov    %eax,(%esp)
 80497bf:	e8 7c f2 ff ff       	call   8048a40 <connect@plt>
 80497c4:	85 c0                	test   %eax,%eax
 80497c6:	79 3f                	jns    8049807 <submitr+0x18f>
 80497c8:	89 7c 24 10          	mov    %edi,0x10(%esp)
 80497cc:	c7 44 24 0c 88 a7 04 	movl   $0x804a788,0xc(%esp)
 80497d3:	08 
 80497d4:	c7 44 24 08 ff ff ff 	movl   $0xffffffff,0x8(%esp)
 80497db:	ff 
 80497dc:	c7 44 24 04 01 00 00 	movl   $0x1,0x4(%esp)
 80497e3:	00 
 80497e4:	8b 45 20             	mov    0x20(%ebp),%eax
 80497e7:	89 04 24             	mov    %eax,(%esp)
 80497ea:	e8 81 f2 ff ff       	call   8048a70 <__sprintf_chk@plt>
 80497ef:	8b 85 b4 5f ff ff    	mov    -0xa04c(%ebp),%eax
 80497f5:	89 04 24             	mov    %eax,(%esp)
 80497f8:	e8 53 f2 ff ff       	call   8048a50 <close@plt>
 80497fd:	b8 ff ff ff ff       	mov    $0xffffffff,%eax
 8049802:	e9 1c 06 00 00       	jmp    8049e23 <submitr+0x7ab>
 8049807:	ba ff ff ff ff       	mov    $0xffffffff,%edx
 804980c:	89 df                	mov    %ebx,%edi
 804980e:	b8 00 00 00 00       	mov    $0x0,%eax
 8049813:	89 d1                	mov    %edx,%ecx
 8049815:	f2 ae                	repnz scas %es:(%edi),%al
 8049817:	f7 d1                	not    %ecx
 8049819:	89 8d b0 5f ff ff    	mov    %ecx,-0xa050(%ebp)
 804981f:	8b 7d 10             	mov    0x10(%ebp),%edi
 8049822:	89 d1                	mov    %edx,%ecx
 8049824:	f2 ae                	repnz scas %es:(%edi),%al
 8049826:	89 8d ac 5f ff ff    	mov    %ecx,-0xa054(%ebp)
 804982c:	8b 7d 14             	mov    0x14(%ebp),%edi
 804982f:	89 d1                	mov    %edx,%ecx
 8049831:	f2 ae                	repnz scas %es:(%edi),%al
 8049833:	89 ce                	mov    %ecx,%esi
 8049835:	f7 d6                	not    %esi
 8049837:	8b 7d 18             	mov    0x18(%ebp),%edi
 804983a:	89 d1                	mov    %edx,%ecx
 804983c:	f2 ae                	repnz scas %es:(%edi),%al
 804983e:	2b b5 ac 5f ff ff    	sub    -0xa054(%ebp),%esi
 8049844:	29 ce                	sub    %ecx,%esi
 8049846:	8b 8d b0 5f ff ff    	mov    -0xa050(%ebp),%ecx
 804984c:	8d 44 49 fd          	lea    -0x3(%ecx,%ecx,2),%eax
 8049850:	8d 44 06 7b          	lea    0x7b(%esi,%eax,1),%eax
 8049854:	3d 00 20 00 00       	cmp    $0x2000,%eax
 8049859:	76 7c                	jbe    80498d7 <submitr+0x25f>
 804985b:	8b 45 20             	mov    0x20(%ebp),%eax
 804985e:	c7 00 45 72 72 6f    	movl   $0x6f727245,(%eax)
 8049864:	c7 40 04 72 3a 20 52 	movl   $0x52203a72,0x4(%eax)
 804986b:	c7 40 08 65 73 75 6c 	movl   $0x6c757365,0x8(%eax)
 8049872:	c7 40 0c 74 20 73 74 	movl   $0x74732074,0xc(%eax)
 8049879:	c7 40 10 72 69 6e 67 	movl   $0x676e6972,0x10(%eax)
 8049880:	c7 40 14 20 74 6f 6f 	movl   $0x6f6f7420,0x14(%eax)
 8049887:	c7 40 18 20 6c 61 72 	movl   $0x72616c20,0x18(%eax)
 804988e:	c7 40 1c 67 65 2e 20 	movl   $0x202e6567,0x1c(%eax)
 8049895:	c7 40 20 49 6e 63 72 	movl   $0x72636e49,0x20(%eax)
 804989c:	c7 40 24 65 61 73 65 	movl   $0x65736165,0x24(%eax)
 80498a3:	c7 40 28 20 53 55 42 	movl   $0x42555320,0x28(%eax)
 80498aa:	c7 40 2c 4d 49 54 52 	movl   $0x5254494d,0x2c(%eax)
 80498b1:	c7 40 30 5f 4d 41 58 	movl   $0x58414d5f,0x30(%eax)
 80498b8:	c7 40 34 42 55 46 00 	movl   $0x465542,0x34(%eax)
 80498bf:	8b 85 b4 5f ff ff    	mov    -0xa04c(%ebp),%eax
 80498c5:	89 04 24             	mov    %eax,(%esp)
 80498c8:	e8 83 f1 ff ff       	call   8048a50 <close@plt>
 80498cd:	b8 ff ff ff ff       	mov    $0xffffffff,%eax
 80498d2:	e9 4c 05 00 00       	jmp    8049e23 <submitr+0x7ab>
 80498d7:	8d 95 cc 9f ff ff    	lea    -0x6034(%ebp),%edx
 80498dd:	b9 00 08 00 00       	mov    $0x800,%ecx
 80498e2:	b8 00 00 00 00       	mov    $0x0,%eax
 80498e7:	89 d7                	mov    %edx,%edi
 80498e9:	f3 ab                	rep stos %eax,%es:(%edi)
 80498eb:	89 df                	mov    %ebx,%edi
 80498ed:	b9 ff ff ff ff       	mov    $0xffffffff,%ecx
 80498f2:	f2 ae                	repnz scas %es:(%edi),%al
 80498f4:	f7 d1                	not    %ecx
 80498f6:	83 e9 01             	sub    $0x1,%ecx
 80498f9:	89 ce                	mov    %ecx,%esi
 80498fb:	0f 84 2f 04 00 00    	je     8049d30 <submitr+0x6b8>
 8049901:	89 d7                	mov    %edx,%edi
 8049903:	0f b6 03             	movzbl (%ebx),%eax
 8049906:	3c 2a                	cmp    $0x2a,%al
 8049908:	74 21                	je     804992b <submitr+0x2b3>
 804990a:	8d 50 d3             	lea    -0x2d(%eax),%edx
 804990d:	80 fa 01             	cmp    $0x1,%dl
 8049910:	76 19                	jbe    804992b <submitr+0x2b3>
 8049912:	3c 5f                	cmp    $0x5f,%al
 8049914:	74 15                	je     804992b <submitr+0x2b3>
 8049916:	8d 50 d0             	lea    -0x30(%eax),%edx
 8049919:	80 fa 09             	cmp    $0x9,%dl
 804991c:	76 0d                	jbe    804992b <submitr+0x2b3>
 804991e:	89 c2                	mov    %eax,%edx
 8049920:	83 e2 df             	and    $0xffffffdf,%edx
 8049923:	83 ea 41             	sub    $0x41,%edx
 8049926:	80 fa 19             	cmp    $0x19,%dl
 8049929:	77 07                	ja     8049932 <submitr+0x2ba>
 804992b:	8d 57 01             	lea    0x1(%edi),%edx
 804992e:	88 07                	mov    %al,(%edi)
 8049930:	eb 69                	jmp    804999b <submitr+0x323>
 8049932:	3c 20                	cmp    $0x20,%al
 8049934:	75 08                	jne    804993e <submitr+0x2c6>
 8049936:	8d 57 01             	lea    0x1(%edi),%edx
 8049939:	c6 07 2b             	movb   $0x2b,(%edi)
 804993c:	eb 5d                	jmp    804999b <submitr+0x323>
 804993e:	8d 50 e0             	lea    -0x20(%eax),%edx
 8049941:	80 fa 5f             	cmp    $0x5f,%dl
 8049944:	76 08                	jbe    804994e <submitr+0x2d6>
 8049946:	3c 09                	cmp    $0x9,%al
 8049948:	0f 85 57 04 00 00    	jne    8049da5 <submitr+0x72d>
 804994e:	0f b6 c0             	movzbl %al,%eax
 8049951:	89 44 24 10          	mov    %eax,0x10(%esp)
 8049955:	c7 44 24 0c 9c a8 04 	movl   $0x804a89c,0xc(%esp)
 804995c:	08 
 804995d:	c7 44 24 08 08 00 00 	movl   $0x8,0x8(%esp)
 8049964:	00 
 8049965:	c7 44 24 04 01 00 00 	movl   $0x1,0x4(%esp)
 804996c:	00 
 804996d:	8d 85 c0 5f ff ff    	lea    -0xa040(%ebp),%eax
 8049973:	89 04 24             	mov    %eax,(%esp)
 8049976:	e8 f5 f0 ff ff       	call   8048a70 <__sprintf_chk@plt>
 804997b:	0f b6 85 c0 5f ff ff 	movzbl -0xa040(%ebp),%eax
 8049982:	88 07                	mov    %al,(%edi)
 8049984:	0f b6 85 c1 5f ff ff 	movzbl -0xa03f(%ebp),%eax
 804998b:	88 47 01             	mov    %al,0x1(%edi)
 804998e:	8d 57 03             	lea    0x3(%edi),%edx
 8049991:	0f b6 85 c2 5f ff ff 	movzbl -0xa03e(%ebp),%eax
 8049998:	88 47 02             	mov    %al,0x2(%edi)
 804999b:	83 c3 01             	add    $0x1,%ebx
 804999e:	83 ee 01             	sub    $0x1,%esi
 80499a1:	0f 84 89 03 00 00    	je     8049d30 <submitr+0x6b8>
 80499a7:	89 d7                	mov    %edx,%edi
 80499a9:	e9 55 ff ff ff       	jmp    8049903 <submitr+0x28b>
 80499ae:	89 5c 24 08          	mov    %ebx,0x8(%esp)
 80499b2:	89 74 24 04          	mov    %esi,0x4(%esp)
 80499b6:	89 3c 24             	mov    %edi,(%esp)
 80499b9:	e8 a2 ef ff ff       	call   8048960 <write@plt>
 80499be:	85 c0                	test   %eax,%eax
 80499c0:	7f 0f                	jg     80499d1 <submitr+0x359>
 80499c2:	e8 09 f0 ff ff       	call   80489d0 <__errno_location@plt>
 80499c7:	83 38 04             	cmpl   $0x4,(%eax)
 80499ca:	75 15                	jne    80499e1 <submitr+0x369>
 80499cc:	b8 00 00 00 00       	mov    $0x0,%eax
 80499d1:	01 c6                	add    %eax,%esi
 80499d3:	29 c3                	sub    %eax,%ebx
 80499d5:	75 d7                	jne    80499ae <submitr+0x336>
 80499d7:	8b bd b0 5f ff ff    	mov    -0xa050(%ebp),%edi
 80499dd:	85 ff                	test   %edi,%edi
 80499df:	79 67                	jns    8049a48 <submitr+0x3d0>
 80499e1:	8b 45 20             	mov    0x20(%ebp),%eax
 80499e4:	c7 00 45 72 72 6f    	movl   $0x6f727245,(%eax)
 80499ea:	c7 40 04 72 3a 20 43 	movl   $0x43203a72,0x4(%eax)
 80499f1:	c7 40 08 6c 69 65 6e 	movl   $0x6e65696c,0x8(%eax)
 80499f8:	c7 40 0c 74 20 75 6e 	movl   $0x6e752074,0xc(%eax)
 80499ff:	c7 40 10 61 62 6c 65 	movl   $0x656c6261,0x10(%eax)
 8049a06:	c7 40 14 20 74 6f 20 	movl   $0x206f7420,0x14(%eax)
 8049a0d:	c7 40 18 77 72 69 74 	movl   $0x74697277,0x18(%eax)
 8049a14:	c7 40 1c 65 20 74 6f 	movl   $0x6f742065,0x1c(%eax)
 8049a1b:	c7 40 20 20 74 68 65 	movl   $0x65687420,0x20(%eax)
 8049a22:	c7 40 24 20 73 65 72 	movl   $0x72657320,0x24(%eax)
 8049a29:	c7 40 28 76 65 72 00 	movl   $0x726576,0x28(%eax)
 8049a30:	8b 85 b4 5f ff ff    	mov    -0xa04c(%ebp),%eax
 8049a36:	89 04 24             	mov    %eax,(%esp)
 8049a39:	e8 12 f0 ff ff       	call   8048a50 <close@plt>
 8049a3e:	b8 ff ff ff ff       	mov    $0xffffffff,%eax
 8049a43:	e9 db 03 00 00       	jmp    8049e23 <submitr+0x7ab>
 8049a48:	8b 85 b4 5f ff ff    	mov    -0xa04c(%ebp),%eax
 8049a4e:	89 85 cc df ff ff    	mov    %eax,-0x2034(%ebp)
 8049a54:	c7 85 d0 df ff ff 00 	movl   $0x0,-0x2030(%ebp)
 8049a5b:	00 00 00 
 8049a5e:	8d 85 d8 df ff ff    	lea    -0x2028(%ebp),%eax
 8049a64:	89 85 d4 df ff ff    	mov    %eax,-0x202c(%ebp)
 8049a6a:	b9 00 20 00 00       	mov    $0x2000,%ecx
 8049a6f:	8d 95 cc bf ff ff    	lea    -0x4034(%ebp),%edx
 8049a75:	8d 85 cc df ff ff    	lea    -0x2034(%ebp),%eax
 8049a7b:	e8 ee fa ff ff       	call   804956e <rio_readlineb>
 8049a80:	85 c0                	test   %eax,%eax
 8049a82:	7f 7b                	jg     8049aff <submitr+0x487>
 8049a84:	8b 45 20             	mov    0x20(%ebp),%eax
 8049a87:	c7 00 45 72 72 6f    	movl   $0x6f727245,(%eax)
 8049a8d:	c7 40 04 72 3a 20 43 	movl   $0x43203a72,0x4(%eax)
 8049a94:	c7 40 08 6c 69 65 6e 	movl   $0x6e65696c,0x8(%eax)
 8049a9b:	c7 40 0c 74 20 75 6e 	movl   $0x6e752074,0xc(%eax)
 8049aa2:	c7 40 10 61 62 6c 65 	movl   $0x656c6261,0x10(%eax)
 8049aa9:	c7 40 14 20 74 6f 20 	movl   $0x206f7420,0x14(%eax)
 8049ab0:	c7 40 18 72 65 61 64 	movl   $0x64616572,0x18(%eax)
 8049ab7:	c7 40 1c 20 66 69 72 	movl   $0x72696620,0x1c(%eax)
 8049abe:	c7 40 20 73 74 20 68 	movl   $0x68207473,0x20(%eax)
 8049ac5:	c7 40 24 65 61 64 65 	movl   $0x65646165,0x24(%eax)
 8049acc:	c7 40 28 72 20 66 72 	movl   $0x72662072,0x28(%eax)
 8049ad3:	c7 40 2c 6f 6d 20 73 	movl   $0x73206d6f,0x2c(%eax)
 8049ada:	c7 40 30 65 72 76 65 	movl   $0x65767265,0x30(%eax)
 8049ae1:	66 c7 40 34 72 00    	movw   $0x72,0x34(%eax)
 8049ae7:	8b 85 b4 5f ff ff    	mov    -0xa04c(%ebp),%eax
 8049aed:	89 04 24             	mov    %eax,(%esp)
 8049af0:	e8 5b ef ff ff       	call   8048a50 <close@plt>
 8049af5:	b8 ff ff ff ff       	mov    $0xffffffff,%eax
 8049afa:	e9 24 03 00 00       	jmp    8049e23 <submitr+0x7ab>
 8049aff:	8d 85 c8 5f ff ff    	lea    -0xa038(%ebp),%eax
 8049b05:	89 44 24 10          	mov    %eax,0x10(%esp)
 8049b09:	8d 85 c8 7f ff ff    	lea    -0x8038(%ebp),%eax
 8049b0f:	89 44 24 0c          	mov    %eax,0xc(%esp)
 8049b13:	8d 85 cc 7f ff ff    	lea    -0x8034(%ebp),%eax
 8049b19:	89 44 24 08          	mov    %eax,0x8(%esp)
 8049b1d:	c7 44 24 04 a3 a8 04 	movl   $0x804a8a3,0x4(%esp)
 8049b24:	08 
 8049b25:	8d 85 cc bf ff ff    	lea    -0x4034(%ebp),%eax
 8049b2b:	89 04 24             	mov    %eax,(%esp)
 8049b2e:	e8 6d ee ff ff       	call   80489a0 <__isoc99_sscanf@plt>
 8049b33:	8b 85 c8 7f ff ff    	mov    -0x8038(%ebp),%eax
 8049b39:	3d c8 00 00 00       	cmp    $0xc8,%eax
 8049b3e:	0f 84 d5 00 00 00    	je     8049c19 <submitr+0x5a1>
 8049b44:	8d 95 c8 5f ff ff    	lea    -0xa038(%ebp),%edx
 8049b4a:	89 54 24 14          	mov    %edx,0x14(%esp)
 8049b4e:	89 44 24 10          	mov    %eax,0x10(%esp)
 8049b52:	c7 44 24 0c b0 a7 04 	movl   $0x804a7b0,0xc(%esp)
 8049b59:	08 
 8049b5a:	c7 44 24 08 ff ff ff 	movl   $0xffffffff,0x8(%esp)
 8049b61:	ff 
 8049b62:	c7 44 24 04 01 00 00 	movl   $0x1,0x4(%esp)
 8049b69:	00 
 8049b6a:	8b 45 20             	mov    0x20(%ebp),%eax
 8049b6d:	89 04 24             	mov    %eax,(%esp)
 8049b70:	e8 fb ee ff ff       	call   8048a70 <__sprintf_chk@plt>
 8049b75:	8b 85 b4 5f ff ff    	mov    -0xa04c(%ebp),%eax
 8049b7b:	89 04 24             	mov    %eax,(%esp)
 8049b7e:	e8 cd ee ff ff       	call   8048a50 <close@plt>
 8049b83:	b8 ff ff ff ff       	mov    $0xffffffff,%eax
 8049b88:	e9 96 02 00 00       	jmp    8049e23 <submitr+0x7ab>
 8049b8d:	b9 00 20 00 00       	mov    $0x2000,%ecx
 8049b92:	8d 95 cc bf ff ff    	lea    -0x4034(%ebp),%edx
 8049b98:	8d 85 cc df ff ff    	lea    -0x2034(%ebp),%eax
 8049b9e:	e8 cb f9 ff ff       	call   804956e <rio_readlineb>
 8049ba3:	85 c0                	test   %eax,%eax
 8049ba5:	7f 72                	jg     8049c19 <submitr+0x5a1>
 8049ba7:	8b 45 20             	mov    0x20(%ebp),%eax
 8049baa:	c7 00 45 72 72 6f    	movl   $0x6f727245,(%eax)
 8049bb0:	c7 40 04 72 3a 20 43 	movl   $0x43203a72,0x4(%eax)
 8049bb7:	c7 40 08 6c 69 65 6e 	movl   $0x6e65696c,0x8(%eax)
 8049bbe:	c7 40 0c 74 20 75 6e 	movl   $0x6e752074,0xc(%eax)
 8049bc5:	c7 40 10 61 62 6c 65 	movl   $0x656c6261,0x10(%eax)
 8049bcc:	c7 40 14 20 74 6f 20 	movl   $0x206f7420,0x14(%eax)
 8049bd3:	c7 40 18 72 65 61 64 	movl   $0x64616572,0x18(%eax)
 8049bda:	c7 40 1c 20 68 65 61 	movl   $0x61656820,0x1c(%eax)
 8049be1:	c7 40 20 64 65 72 73 	movl   $0x73726564,0x20(%eax)
 8049be8:	c7 40 24 20 66 72 6f 	movl   $0x6f726620,0x24(%eax)
 8049bef:	c7 40 28 6d 20 73 65 	movl   $0x6573206d,0x28(%eax)
 8049bf6:	c7 40 2c 72 76 65 72 	movl   $0x72657672,0x2c(%eax)
 8049bfd:	c6 40 30 00          	movb   $0x0,0x30(%eax)
 8049c01:	8b 85 b4 5f ff ff    	mov    -0xa04c(%ebp),%eax
 8049c07:	89 04 24             	mov    %eax,(%esp)
 8049c0a:	e8 41 ee ff ff       	call   8048a50 <close@plt>
 8049c0f:	b8 ff ff ff ff       	mov    $0xffffffff,%eax
 8049c14:	e9 0a 02 00 00       	jmp    8049e23 <submitr+0x7ab>
 8049c19:	80 bd cc bf ff ff 0d 	cmpb   $0xd,-0x4034(%ebp)
 8049c20:	0f 85 67 ff ff ff    	jne    8049b8d <submitr+0x515>
 8049c26:	80 bd cd bf ff ff 0a 	cmpb   $0xa,-0x4033(%ebp)
 8049c2d:	0f 85 5a ff ff ff    	jne    8049b8d <submitr+0x515>
 8049c33:	80 bd ce bf ff ff 00 	cmpb   $0x0,-0x4032(%ebp)
 8049c3a:	0f 85 4d ff ff ff    	jne    8049b8d <submitr+0x515>
 8049c40:	b9 00 20 00 00       	mov    $0x2000,%ecx
 8049c45:	8d 95 cc bf ff ff    	lea    -0x4034(%ebp),%edx
 8049c4b:	8d 85 cc df ff ff    	lea    -0x2034(%ebp),%eax
 8049c51:	e8 18 f9 ff ff       	call   804956e <rio_readlineb>
 8049c56:	85 c0                	test   %eax,%eax
 8049c58:	7f 7c                	jg     8049cd6 <submitr+0x65e>
 8049c5a:	8b 45 20             	mov    0x20(%ebp),%eax
 8049c5d:	c7 00 45 72 72 6f    	movl   $0x6f727245,(%eax)
 8049c63:	c7 40 04 72 3a 20 43 	movl   $0x43203a72,0x4(%eax)
 8049c6a:	c7 40 08 6c 69 65 6e 	movl   $0x6e65696c,0x8(%eax)
 8049c71:	c7 40 0c 74 20 75 6e 	movl   $0x6e752074,0xc(%eax)
 8049c78:	c7 40 10 61 62 6c 65 	movl   $0x656c6261,0x10(%eax)
 8049c7f:	c7 40 14 20 74 6f 20 	movl   $0x206f7420,0x14(%eax)
 8049c86:	c7 40 18 72 65 61 64 	movl   $0x64616572,0x18(%eax)
 8049c8d:	c7 40 1c 20 73 74 61 	movl   $0x61747320,0x1c(%eax)
 8049c94:	c7 40 20 74 75 73 20 	movl   $0x20737574,0x20(%eax)
 8049c9b:	c7 40 24 6d 65 73 73 	movl   $0x7373656d,0x24(%eax)
 8049ca2:	c7 40 28 61 67 65 20 	movl   $0x20656761,0x28(%eax)
 8049ca9:	c7 40 2c 66 72 6f 6d 	movl   $0x6d6f7266,0x2c(%eax)
 8049cb0:	c7 40 30 20 73 65 72 	movl   $0x72657320,0x30(%eax)
 8049cb7:	c7 40 34 76 65 72 00 	movl   $0x726576,0x34(%eax)
 8049cbe:	8b 85 b4 5f ff ff    	mov    -0xa04c(%ebp),%eax
 8049cc4:	89 04 24             	mov    %eax,(%esp)
 8049cc7:	e8 84 ed ff ff       	call   8048a50 <close@plt>
 8049ccc:	b8 ff ff ff ff       	mov    $0xffffffff,%eax
 8049cd1:	e9 4d 01 00 00       	jmp    8049e23 <submitr+0x7ab>
 8049cd6:	8d 85 cc bf ff ff    	lea    -0x4034(%ebp),%eax
 8049cdc:	89 44 24 04          	mov    %eax,0x4(%esp)
 8049ce0:	8b 45 20             	mov    0x20(%ebp),%eax
 8049ce3:	89 04 24             	mov    %eax,(%esp)
 8049ce6:	e8 c5 eb ff ff       	call   80488b0 <strcpy@plt>
 8049ceb:	8b 85 b4 5f ff ff    	mov    -0xa04c(%ebp),%eax
 8049cf1:	89 04 24             	mov    %eax,(%esp)
 8049cf4:	e8 57 ed ff ff       	call   8048a50 <close@plt>
 8049cf9:	8b 45 20             	mov    0x20(%ebp),%eax
 8049cfc:	0f b6 00             	movzbl (%eax),%eax
 8049cff:	ba 4f 00 00 00       	mov    $0x4f,%edx
 8049d04:	29 c2                	sub    %eax,%edx
 8049d06:	75 19                	jne    8049d21 <submitr+0x6a9>
 8049d08:	8b 45 20             	mov    0x20(%ebp),%eax
 8049d0b:	0f b6 40 01          	movzbl 0x1(%eax),%eax
 8049d0f:	ba 4b 00 00 00       	mov    $0x4b,%edx
 8049d14:	29 c2                	sub    %eax,%edx
 8049d16:	75 09                	jne    8049d21 <submitr+0x6a9>
 8049d18:	8b 45 20             	mov    0x20(%ebp),%eax
 8049d1b:	0f b6 50 02          	movzbl 0x2(%eax),%edx
 8049d1f:	f7 da                	neg    %edx
 8049d21:	85 d2                	test   %edx,%edx
 8049d23:	0f 95 c0             	setne  %al
 8049d26:	0f b6 c0             	movzbl %al,%eax
 8049d29:	f7 d8                	neg    %eax
 8049d2b:	e9 f3 00 00 00       	jmp    8049e23 <submitr+0x7ab>
 8049d30:	8d 85 cc 9f ff ff    	lea    -0x6034(%ebp),%eax
 8049d36:	89 44 24 1c          	mov    %eax,0x1c(%esp)
 8049d3a:	8b 45 18             	mov    0x18(%ebp),%eax
 8049d3d:	89 44 24 18          	mov    %eax,0x18(%esp)
 8049d41:	8b 45 14             	mov    0x14(%ebp),%eax
 8049d44:	89 44 24 14          	mov    %eax,0x14(%esp)
 8049d48:	8b 45 10             	mov    0x10(%ebp),%eax
 8049d4b:	89 44 24 10          	mov    %eax,0x10(%esp)
 8049d4f:	c7 44 24 0c e0 a7 04 	movl   $0x804a7e0,0xc(%esp)
 8049d56:	08 
 8049d57:	c7 44 24 08 00 20 00 	movl   $0x2000,0x8(%esp)
 8049d5e:	00 
 8049d5f:	c7 44 24 04 01 00 00 	movl   $0x1,0x4(%esp)
 8049d66:	00 
 8049d67:	8d bd cc bf ff ff    	lea    -0x4034(%ebp),%edi
 8049d6d:	89 3c 24             	mov    %edi,(%esp)
 8049d70:	e8 fb ec ff ff       	call   8048a70 <__sprintf_chk@plt>
 8049d75:	b8 00 00 00 00       	mov    $0x0,%eax
 8049d7a:	b9 ff ff ff ff       	mov    $0xffffffff,%ecx
 8049d7f:	f2 ae                	repnz scas %es:(%edi),%al
 8049d81:	f7 d1                	not    %ecx
 8049d83:	83 e9 01             	sub    $0x1,%ecx
 8049d86:	0f 84 bc fc ff ff    	je     8049a48 <submitr+0x3d0>
 8049d8c:	89 cb                	mov    %ecx,%ebx
 8049d8e:	8d b5 cc bf ff ff    	lea    -0x4034(%ebp),%esi
 8049d94:	89 8d b0 5f ff ff    	mov    %ecx,-0xa050(%ebp)
 8049d9a:	8b bd b4 5f ff ff    	mov    -0xa04c(%ebp),%edi
 8049da0:	e9 09 fc ff ff       	jmp    80499ae <submitr+0x336>
 8049da5:	8b 7d 20             	mov    0x20(%ebp),%edi
 8049da8:	be 2c a8 04 08       	mov    $0x804a82c,%esi
 8049dad:	b8 43 00 00 00       	mov    $0x43,%eax
 8049db2:	f7 c7 01 00 00 00    	test   $0x1,%edi
 8049db8:	74 19                	je     8049dd3 <submitr+0x75b>
 8049dba:	0f b6 05 2c a8 04 08 	movzbl 0x804a82c,%eax
 8049dc1:	88 07                	mov    %al,(%edi)
 8049dc3:	8b 45 20             	mov    0x20(%ebp),%eax
 8049dc6:	8d 78 01             	lea    0x1(%eax),%edi
 8049dc9:	be 2d a8 04 08       	mov    $0x804a82d,%esi
 8049dce:	b8 42 00 00 00       	mov    $0x42,%eax
 8049dd3:	f7 c7 02 00 00 00    	test   $0x2,%edi
 8049dd9:	74 0f                	je     8049dea <submitr+0x772>
 8049ddb:	0f b7 16             	movzwl (%esi),%edx
 8049dde:	66 89 17             	mov    %dx,(%edi)
 8049de1:	83 c7 02             	add    $0x2,%edi
 8049de4:	83 c6 02             	add    $0x2,%esi
 8049de7:	83 e8 02             	sub    $0x2,%eax
 8049dea:	89 c1                	mov    %eax,%ecx
 8049dec:	c1 e9 02             	shr    $0x2,%ecx
 8049def:	f3 a5                	rep movsl %ds:(%esi),%es:(%edi)
 8049df1:	ba 00 00 00 00       	mov    $0x0,%edx
 8049df6:	a8 02                	test   $0x2,%al
 8049df8:	74 0b                	je     8049e05 <submitr+0x78d>
 8049dfa:	0f b7 16             	movzwl (%esi),%edx
 8049dfd:	66 89 17             	mov    %dx,(%edi)
 8049e00:	ba 02 00 00 00       	mov    $0x2,%edx
 8049e05:	a8 01                	test   $0x1,%al
 8049e07:	74 07                	je     8049e10 <submitr+0x798>
 8049e09:	0f b6 04 16          	movzbl (%esi,%edx,1),%eax
 8049e0d:	88 04 17             	mov    %al,(%edi,%edx,1)
 8049e10:	8b 85 b4 5f ff ff    	mov    -0xa04c(%ebp),%eax
 8049e16:	89 04 24             	mov    %eax,(%esp)
 8049e19:	e8 32 ec ff ff       	call   8048a50 <close@plt>
 8049e1e:	b8 ff ff ff ff       	mov    $0xffffffff,%eax
 8049e23:	81 c4 6c a0 00 00    	add    $0xa06c,%esp
 8049e29:	5b                   	pop    %ebx
 8049e2a:	5e                   	pop    %esi
 8049e2b:	5f                   	pop    %edi
 8049e2c:	5d                   	pop    %ebp
 8049e2d:	c3                   	ret    

08049e2e <init_timeout>:
 8049e2e:	55                   	push   %ebp
 8049e2f:	89 e5                	mov    %esp,%ebp
 8049e31:	53                   	push   %ebx
 8049e32:	83 ec 14             	sub    $0x14,%esp
 8049e35:	8b 5d 08             	mov    0x8(%ebp),%ebx
 8049e38:	85 db                	test   %ebx,%ebx
 8049e3a:	74 26                	je     8049e62 <init_timeout+0x34>
 8049e3c:	85 db                	test   %ebx,%ebx
 8049e3e:	b8 02 00 00 00       	mov    $0x2,%eax
 8049e43:	0f 48 d8             	cmovs  %eax,%ebx
 8049e46:	c7 44 24 04 40 95 04 	movl   $0x8049540,0x4(%esp)
 8049e4d:	08 
 8049e4e:	c7 04 24 0e 00 00 00 	movl   $0xe,(%esp)
 8049e55:	e8 f6 e9 ff ff       	call   8048850 <signal@plt>
 8049e5a:	89 1c 24             	mov    %ebx,(%esp)
 8049e5d:	e8 fe e9 ff ff       	call   8048860 <alarm@plt>
 8049e62:	83 c4 14             	add    $0x14,%esp
 8049e65:	5b                   	pop    %ebx
 8049e66:	5d                   	pop    %ebp
 8049e67:	c3                   	ret    

08049e68 <init_driver>:
 8049e68:	55                   	push   %ebp
 8049e69:	89 e5                	mov    %esp,%ebp
 8049e6b:	57                   	push   %edi
 8049e6c:	56                   	push   %esi
 8049e6d:	53                   	push   %ebx
 8049e6e:	83 ec 3c             	sub    $0x3c,%esp
 8049e71:	8b 75 08             	mov    0x8(%ebp),%esi
 8049e74:	c7 44 24 04 01 00 00 	movl   $0x1,0x4(%esp)
 8049e7b:	00 
 8049e7c:	c7 04 24 0d 00 00 00 	movl   $0xd,(%esp)
 8049e83:	e8 c8 e9 ff ff       	call   8048850 <signal@plt>
 8049e88:	c7 44 24 04 01 00 00 	movl   $0x1,0x4(%esp)
 8049e8f:	00 
 8049e90:	c7 04 24 1d 00 00 00 	movl   $0x1d,(%esp)
 8049e97:	e8 b4 e9 ff ff       	call   8048850 <signal@plt>
 8049e9c:	c7 44 24 04 01 00 00 	movl   $0x1,0x4(%esp)
 8049ea3:	00 
 8049ea4:	c7 04 24 1d 00 00 00 	movl   $0x1d,(%esp)
 8049eab:	e8 a0 e9 ff ff       	call   8048850 <signal@plt>
 8049eb0:	c7 44 24 08 00 00 00 	movl   $0x0,0x8(%esp)
 8049eb7:	00 
 8049eb8:	c7 44 24 04 01 00 00 	movl   $0x1,0x4(%esp)
 8049ebf:	00 
 8049ec0:	c7 04 24 02 00 00 00 	movl   $0x2,(%esp)
 8049ec7:	e8 44 eb ff ff       	call   8048a10 <socket@plt>
 8049ecc:	89 c3                	mov    %eax,%ebx
 8049ece:	85 c0                	test   %eax,%eax
 8049ed0:	79 4e                	jns    8049f20 <init_driver+0xb8>
 8049ed2:	c7 06 45 72 72 6f    	movl   $0x6f727245,(%esi)
 8049ed8:	c7 46 04 72 3a 20 43 	movl   $0x43203a72,0x4(%esi)
 8049edf:	c7 46 08 6c 69 65 6e 	movl   $0x6e65696c,0x8(%esi)
 8049ee6:	c7 46 0c 74 20 75 6e 	movl   $0x6e752074,0xc(%esi)
 8049eed:	c7 46 10 61 62 6c 65 	movl   $0x656c6261,0x10(%esi)
 8049ef4:	c7 46 14 20 74 6f 20 	movl   $0x206f7420,0x14(%esi)
 8049efb:	c7 46 18 63 72 65 61 	movl   $0x61657263,0x18(%esi)
 8049f02:	c7 46 1c 74 65 20 73 	movl   $0x73206574,0x1c(%esi)
 8049f09:	c7 46 20 6f 63 6b 65 	movl   $0x656b636f,0x20(%esi)
 8049f10:	66 c7 46 24 74 00    	movw   $0x74,0x24(%esi)
 8049f16:	b8 ff ff ff ff       	mov    $0xffffffff,%eax
 8049f1b:	e9 05 01 00 00       	jmp    804a025 <init_driver+0x1bd>
 8049f20:	c7 04 24 b4 a8 04 08 	movl   $0x804a8b4,(%esp)
 8049f27:	e8 04 eb ff ff       	call   8048a30 <gethostbyname@plt>
 8049f2c:	85 c0                	test   %eax,%eax
 8049f2e:	75 3a                	jne    8049f6a <init_driver+0x102>
 8049f30:	c7 44 24 10 b4 a8 04 	movl   $0x804a8b4,0x10(%esp)
 8049f37:	08 
 8049f38:	c7 44 24 0c 5c a7 04 	movl   $0x804a75c,0xc(%esp)
 8049f3f:	08 
 8049f40:	c7 44 24 08 ff ff ff 	movl   $0xffffffff,0x8(%esp)
 8049f47:	ff 
 8049f48:	c7 44 24 04 01 00 00 	movl   $0x1,0x4(%esp)
 8049f4f:	00 
 8049f50:	89 34 24             	mov    %esi,(%esp)
 8049f53:	e8 18 eb ff ff       	call   8048a70 <__sprintf_chk@plt>
 8049f58:	89 1c 24             	mov    %ebx,(%esp)
 8049f5b:	e8 f0 ea ff ff       	call   8048a50 <close@plt>
 8049f60:	b8 ff ff ff ff       	mov    $0xffffffff,%eax
 8049f65:	e9 bb 00 00 00       	jmp    804a025 <init_driver+0x1bd>
 8049f6a:	8d 7d d8             	lea    -0x28(%ebp),%edi
 8049f6d:	c7 45 d8 00 00 00 00 	movl   $0x0,-0x28(%ebp)
 8049f74:	c7 45 dc 00 00 00 00 	movl   $0x0,-0x24(%ebp)
 8049f7b:	c7 45 e0 00 00 00 00 	movl   $0x0,-0x20(%ebp)
 8049f82:	c7 45 e4 00 00 00 00 	movl   $0x0,-0x1c(%ebp)
 8049f89:	66 c7 45 d8 02 00    	movw   $0x2,-0x28(%ebp)
 8049f8f:	c7 44 24 0c 0c 00 00 	movl   $0xc,0xc(%esp)
 8049f96:	00 
 8049f97:	8b 50 0c             	mov    0xc(%eax),%edx
 8049f9a:	89 54 24 08          	mov    %edx,0x8(%esp)
 8049f9e:	8b 40 10             	mov    0x10(%eax),%eax
 8049fa1:	8b 00                	mov    (%eax),%eax
 8049fa3:	89 44 24 04          	mov    %eax,0x4(%esp)
 8049fa7:	8d 45 dc             	lea    -0x24(%ebp),%eax
 8049faa:	89 04 24             	mov    %eax,(%esp)
 8049fad:	e8 3e e9 ff ff       	call   80488f0 <__memmove_chk@plt>
 8049fb2:	66 c7 45 da 47 26    	movw   $0x2647,-0x26(%ebp)
 8049fb8:	c7 44 24 08 10 00 00 	movl   $0x10,0x8(%esp)
 8049fbf:	00 
 8049fc0:	89 7c 24 04          	mov    %edi,0x4(%esp)
 8049fc4:	89 1c 24             	mov    %ebx,(%esp)
 8049fc7:	e8 74 ea ff ff       	call   8048a40 <connect@plt>
 8049fcc:	85 c0                	test   %eax,%eax
 8049fce:	79 3f                	jns    804a00f <init_driver+0x1a7>
 8049fd0:	c7 44 24 14 26 47 00 	movl   $0x4726,0x14(%esp)
 8049fd7:	00 
 8049fd8:	c7 44 24 10 b4 a8 04 	movl   $0x804a8b4,0x10(%esp)
 8049fdf:	08 
 8049fe0:	c7 44 24 0c 70 a8 04 	movl   $0x804a870,0xc(%esp)
 8049fe7:	08 
 8049fe8:	c7 44 24 08 ff ff ff 	movl   $0xffffffff,0x8(%esp)
 8049fef:	ff 
 8049ff0:	c7 44 24 04 01 00 00 	movl   $0x1,0x4(%esp)
 8049ff7:	00 
 8049ff8:	89 34 24             	mov    %esi,(%esp)
 8049ffb:	e8 70 ea ff ff       	call   8048a70 <__sprintf_chk@plt>
 804a000:	89 1c 24             	mov    %ebx,(%esp)
 804a003:	e8 48 ea ff ff       	call   8048a50 <close@plt>
 804a008:	b8 ff ff ff ff       	mov    $0xffffffff,%eax
 804a00d:	eb 16                	jmp    804a025 <init_driver+0x1bd>
 804a00f:	89 1c 24             	mov    %ebx,(%esp)
 804a012:	e8 39 ea ff ff       	call   8048a50 <close@plt>
 804a017:	66 c7 06 4f 4b       	movw   $0x4b4f,(%esi)
 804a01c:	c6 46 02 00          	movb   $0x0,0x2(%esi)
 804a020:	b8 00 00 00 00       	mov    $0x0,%eax
 804a025:	83 c4 3c             	add    $0x3c,%esp
 804a028:	5b                   	pop    %ebx
 804a029:	5e                   	pop    %esi
 804a02a:	5f                   	pop    %edi
 804a02b:	5d                   	pop    %ebp
 804a02c:	c3                   	ret    

0804a02d <driver_post>:
 804a02d:	55                   	push   %ebp
 804a02e:	89 e5                	mov    %esp,%ebp
 804a030:	53                   	push   %ebx
 804a031:	83 ec 24             	sub    $0x24,%esp
 804a034:	8b 45 08             	mov    0x8(%ebp),%eax
 804a037:	8b 5d 14             	mov    0x14(%ebp),%ebx
 804a03a:	83 7d 10 00          	cmpl   $0x0,0x10(%ebp)
 804a03e:	74 2b                	je     804a06b <driver_post+0x3e>
 804a040:	8b 45 0c             	mov    0xc(%ebp),%eax
 804a043:	89 44 24 08          	mov    %eax,0x8(%esp)
 804a047:	c7 44 24 04 cb a8 04 	movl   $0x804a8cb,0x4(%esp)
 804a04e:	08 
 804a04f:	c7 04 24 01 00 00 00 	movl   $0x1,(%esp)
 804a056:	e8 95 e9 ff ff       	call   80489f0 <__printf_chk@plt>
 804a05b:	66 c7 03 4f 4b       	movw   $0x4b4f,(%ebx)
 804a060:	c6 43 02 00          	movb   $0x0,0x2(%ebx)
 804a064:	b8 00 00 00 00       	mov    $0x0,%eax
 804a069:	eb 4c                	jmp    804a0b7 <driver_post+0x8a>
 804a06b:	85 c0                	test   %eax,%eax
 804a06d:	74 3a                	je     804a0a9 <driver_post+0x7c>
 804a06f:	80 38 00             	cmpb   $0x0,(%eax)
 804a072:	74 35                	je     804a0a9 <driver_post+0x7c>
 804a074:	89 5c 24 18          	mov    %ebx,0x18(%esp)
 804a078:	8b 55 0c             	mov    0xc(%ebp),%edx
 804a07b:	89 54 24 14          	mov    %edx,0x14(%esp)
 804a07f:	c7 44 24 10 e2 a8 04 	movl   $0x804a8e2,0x10(%esp)
 804a086:	08 
 804a087:	89 44 24 0c          	mov    %eax,0xc(%esp)
 804a08b:	c7 44 24 08 e9 a8 04 	movl   $0x804a8e9,0x8(%esp)
 804a092:	08 
 804a093:	c7 44 24 04 26 47 00 	movl   $0x4726,0x4(%esp)
 804a09a:	00 
 804a09b:	c7 04 24 b4 a8 04 08 	movl   $0x804a8b4,(%esp)
 804a0a2:	e8 d1 f5 ff ff       	call   8049678 <submitr>
 804a0a7:	eb 0e                	jmp    804a0b7 <driver_post+0x8a>
 804a0a9:	66 c7 03 4f 4b       	movw   $0x4b4f,(%ebx)
 804a0ae:	c6 43 02 00          	movb   $0x0,0x2(%ebx)
 804a0b2:	b8 00 00 00 00       	mov    $0x0,%eax
 804a0b7:	83 c4 24             	add    $0x24,%esp
 804a0ba:	5b                   	pop    %ebx
 804a0bb:	5d                   	pop    %ebp
 804a0bc:	c3                   	ret    

0804a0bd <hash>:
 804a0bd:	55                   	push   %ebp
 804a0be:	89 e5                	mov    %esp,%ebp
 804a0c0:	8b 4d 08             	mov    0x8(%ebp),%ecx
 804a0c3:	0f b6 11             	movzbl (%ecx),%edx
 804a0c6:	84 d2                	test   %dl,%dl
 804a0c8:	74 19                	je     804a0e3 <hash+0x26>
 804a0ca:	b8 00 00 00 00       	mov    $0x0,%eax
 804a0cf:	6b c0 67             	imul   $0x67,%eax,%eax
 804a0d2:	83 c1 01             	add    $0x1,%ecx
 804a0d5:	0f be d2             	movsbl %dl,%edx
 804a0d8:	01 d0                	add    %edx,%eax
 804a0da:	0f b6 11             	movzbl (%ecx),%edx
 804a0dd:	84 d2                	test   %dl,%dl
 804a0df:	75 ee                	jne    804a0cf <hash+0x12>
 804a0e1:	eb 05                	jmp    804a0e8 <hash+0x2b>
 804a0e3:	b8 00 00 00 00       	mov    $0x0,%eax
 804a0e8:	5d                   	pop    %ebp
 804a0e9:	c3                   	ret    

0804a0ea <check>:
 804a0ea:	55                   	push   %ebp
 804a0eb:	89 e5                	mov    %esp,%ebp
 804a0ed:	8b 55 08             	mov    0x8(%ebp),%edx
 804a0f0:	89 d1                	mov    %edx,%ecx
 804a0f2:	c1 e9 1c             	shr    $0x1c,%ecx
 804a0f5:	b8 00 00 00 00       	mov    $0x0,%eax
 804a0fa:	85 c9                	test   %ecx,%ecx
 804a0fc:	74 2f                	je     804a12d <check+0x43>
 804a0fe:	80 fa 0a             	cmp    $0xa,%dl
 804a101:	74 17                	je     804a11a <check+0x30>
 804a103:	b9 08 00 00 00       	mov    $0x8,%ecx
 804a108:	89 d0                	mov    %edx,%eax
 804a10a:	d3 e8                	shr    %cl,%eax
 804a10c:	3c 0a                	cmp    $0xa,%al
 804a10e:	74 11                	je     804a121 <check+0x37>
 804a110:	83 c1 08             	add    $0x8,%ecx
 804a113:	83 f9 20             	cmp    $0x20,%ecx
 804a116:	75 f0                	jne    804a108 <check+0x1e>
 804a118:	eb 0e                	jmp    804a128 <check+0x3e>
 804a11a:	b8 00 00 00 00       	mov    $0x0,%eax
 804a11f:	eb 0c                	jmp    804a12d <check+0x43>
 804a121:	b8 00 00 00 00       	mov    $0x0,%eax
 804a126:	eb 05                	jmp    804a12d <check+0x43>
 804a128:	b8 01 00 00 00       	mov    $0x1,%eax
 804a12d:	5d                   	pop    %ebp
 804a12e:	c3                   	ret    

0804a12f <gencookie>:
 804a12f:	55                   	push   %ebp
 804a130:	89 e5                	mov    %esp,%ebp
 804a132:	53                   	push   %ebx
 804a133:	83 ec 14             	sub    $0x14,%esp
 804a136:	8b 45 08             	mov    0x8(%ebp),%eax
 804a139:	89 04 24             	mov    %eax,(%esp)
 804a13c:	e8 7c ff ff ff       	call   804a0bd <hash>
 804a141:	89 04 24             	mov    %eax,(%esp)
 804a144:	e8 e7 e7 ff ff       	call   8048930 <srand@plt>
 804a149:	e8 92 e8 ff ff       	call   80489e0 <rand@plt>
 804a14e:	89 c3                	mov    %eax,%ebx
 804a150:	89 04 24             	mov    %eax,(%esp)
 804a153:	e8 92 ff ff ff       	call   804a0ea <check>
 804a158:	85 c0                	test   %eax,%eax
 804a15a:	74 ed                	je     804a149 <gencookie+0x1a>
 804a15c:	89 d8                	mov    %ebx,%eax
 804a15e:	83 c4 14             	add    $0x14,%esp
 804a161:	5b                   	pop    %ebx
 804a162:	5d                   	pop    %ebp
 804a163:	c3                   	ret    
 804a164:	66 90                	xchg   %ax,%ax
 804a166:	66 90                	xchg   %ax,%ax
 804a168:	66 90                	xchg   %ax,%ax
 804a16a:	66 90                	xchg   %ax,%ax
 804a16c:	66 90                	xchg   %ax,%ax
 804a16e:	66 90                	xchg   %ax,%ax

0804a170 <__libc_csu_init>:
 804a170:	55                   	push   %ebp
 804a171:	57                   	push   %edi
 804a172:	31 ff                	xor    %edi,%edi
 804a174:	56                   	push   %esi
 804a175:	53                   	push   %ebx
 804a176:	e8 35 e9 ff ff       	call   8048ab0 <__x86.get_pc_thunk.bx>
 804a17b:	81 c3 85 1e 00 00    	add    $0x1e85,%ebx
 804a181:	83 ec 1c             	sub    $0x1c,%esp
 804a184:	8b 6c 24 30          	mov    0x30(%esp),%ebp
 804a188:	8d b3 0c ff ff ff    	lea    -0xf4(%ebx),%esi
 804a18e:	e8 69 e6 ff ff       	call   80487fc <_init>
 804a193:	8d 83 08 ff ff ff    	lea    -0xf8(%ebx),%eax
 804a199:	29 c6                	sub    %eax,%esi
 804a19b:	c1 fe 02             	sar    $0x2,%esi
 804a19e:	85 f6                	test   %esi,%esi
 804a1a0:	74 27                	je     804a1c9 <__libc_csu_init+0x59>
 804a1a2:	8d b6 00 00 00 00    	lea    0x0(%esi),%esi
 804a1a8:	8b 44 24 38          	mov    0x38(%esp),%eax
 804a1ac:	89 2c 24             	mov    %ebp,(%esp)
 804a1af:	89 44 24 08          	mov    %eax,0x8(%esp)
 804a1b3:	8b 44 24 34          	mov    0x34(%esp),%eax
 804a1b7:	89 44 24 04          	mov    %eax,0x4(%esp)
 804a1bb:	ff 94 bb 08 ff ff ff 	call   *-0xf8(%ebx,%edi,4)
 804a1c2:	83 c7 01             	add    $0x1,%edi
 804a1c5:	39 f7                	cmp    %esi,%edi
 804a1c7:	75 df                	jne    804a1a8 <__libc_csu_init+0x38>
 804a1c9:	83 c4 1c             	add    $0x1c,%esp
 804a1cc:	5b                   	pop    %ebx
 804a1cd:	5e                   	pop    %esi
 804a1ce:	5f                   	pop    %edi
 804a1cf:	5d                   	pop    %ebp
 804a1d0:	c3                   	ret    
 804a1d1:	eb 0d                	jmp    804a1e0 <__libc_csu_fini>
 804a1d3:	90                   	nop
 804a1d4:	90                   	nop
 804a1d5:	90                   	nop
 804a1d6:	90                   	nop
 804a1d7:	90                   	nop
 804a1d8:	90                   	nop
 804a1d9:	90                   	nop
 804a1da:	90                   	nop
 804a1db:	90                   	nop
 804a1dc:	90                   	nop
 804a1dd:	90                   	nop
 804a1de:	90                   	nop
 804a1df:	90                   	nop

0804a1e0 <__libc_csu_fini>:
 804a1e0:	f3 c3                	repz ret 

Disassembly of section .fini:

0804a1e4 <_fini>:
 804a1e4:	53                   	push   %ebx
 804a1e5:	83 ec 08             	sub    $0x8,%esp
 804a1e8:	e8 c3 e8 ff ff       	call   8048ab0 <__x86.get_pc_thunk.bx>
 804a1ed:	81 c3 13 1e 00 00    	add    $0x1e13,%ebx
 804a1f3:	83 c4 08             	add    $0x8,%esp
 804a1f6:	5b                   	pop    %ebx
 804a1f7:	c3                   	ret    
