
bomb:     file format elf32-i386


Disassembly of section .init:

08048724 <_init>:
 8048724:	53                   	push   %ebx
 8048725:	83 ec 08             	sub    $0x8,%esp
 8048728:	e8 23 02 00 00       	call   8048950 <__x86.get_pc_thunk.bx>
 804872d:	81 c3 d3 38 00 00    	add    $0x38d3,%ebx
 8048733:	8b 83 fc ff ff ff    	mov    -0x4(%ebx),%eax
 8048739:	85 c0                	test   %eax,%eax
 804873b:	74 05                	je     8048742 <_init+0x1e>
 804873d:	e8 de 00 00 00       	call   8048820 <__gmon_start__@plt>
 8048742:	83 c4 08             	add    $0x8,%esp
 8048745:	5b                   	pop    %ebx
 8048746:	c3                   	ret    

Disassembly of section .plt:

08048750 <read@plt-0x10>:
 8048750:	ff 35 04 c0 04 08    	pushl  0x804c004
 8048756:	ff 25 08 c0 04 08    	jmp    *0x804c008
 804875c:	00 00                	add    %al,(%eax)
	...

08048760 <read@plt>:
 8048760:	ff 25 0c c0 04 08    	jmp    *0x804c00c
 8048766:	68 00 00 00 00       	push   $0x0
 804876b:	e9 e0 ff ff ff       	jmp    8048750 <_init+0x2c>

08048770 <fflush@plt>:
 8048770:	ff 25 10 c0 04 08    	jmp    *0x804c010
 8048776:	68 08 00 00 00       	push   $0x8
 804877b:	e9 d0 ff ff ff       	jmp    8048750 <_init+0x2c>

08048780 <fgets@plt>:
 8048780:	ff 25 14 c0 04 08    	jmp    *0x804c014
 8048786:	68 10 00 00 00       	push   $0x10
 804878b:	e9 c0 ff ff ff       	jmp    8048750 <_init+0x2c>

08048790 <signal@plt>:
 8048790:	ff 25 18 c0 04 08    	jmp    *0x804c018
 8048796:	68 18 00 00 00       	push   $0x18
 804879b:	e9 b0 ff ff ff       	jmp    8048750 <_init+0x2c>

080487a0 <sleep@plt>:
 80487a0:	ff 25 1c c0 04 08    	jmp    *0x804c01c
 80487a6:	68 20 00 00 00       	push   $0x20
 80487ab:	e9 a0 ff ff ff       	jmp    8048750 <_init+0x2c>

080487b0 <alarm@plt>:
 80487b0:	ff 25 20 c0 04 08    	jmp    *0x804c020
 80487b6:	68 28 00 00 00       	push   $0x28
 80487bb:	e9 90 ff ff ff       	jmp    8048750 <_init+0x2c>

080487c0 <__stack_chk_fail@plt>:
 80487c0:	ff 25 24 c0 04 08    	jmp    *0x804c024
 80487c6:	68 30 00 00 00       	push   $0x30
 80487cb:	e9 80 ff ff ff       	jmp    8048750 <_init+0x2c>

080487d0 <strcpy@plt>:
 80487d0:	ff 25 28 c0 04 08    	jmp    *0x804c028
 80487d6:	68 38 00 00 00       	push   $0x38
 80487db:	e9 70 ff ff ff       	jmp    8048750 <_init+0x2c>

080487e0 <getenv@plt>:
 80487e0:	ff 25 2c c0 04 08    	jmp    *0x804c02c
 80487e6:	68 40 00 00 00       	push   $0x40
 80487eb:	e9 60 ff ff ff       	jmp    8048750 <_init+0x2c>

080487f0 <puts@plt>:
 80487f0:	ff 25 30 c0 04 08    	jmp    *0x804c030
 80487f6:	68 48 00 00 00       	push   $0x48
 80487fb:	e9 50 ff ff ff       	jmp    8048750 <_init+0x2c>

08048800 <__memmove_chk@plt>:
 8048800:	ff 25 34 c0 04 08    	jmp    *0x804c034
 8048806:	68 50 00 00 00       	push   $0x50
 804880b:	e9 40 ff ff ff       	jmp    8048750 <_init+0x2c>

08048810 <__memcpy_chk@plt>:
 8048810:	ff 25 38 c0 04 08    	jmp    *0x804c038
 8048816:	68 58 00 00 00       	push   $0x58
 804881b:	e9 30 ff ff ff       	jmp    8048750 <_init+0x2c>

08048820 <__gmon_start__@plt>:
 8048820:	ff 25 3c c0 04 08    	jmp    *0x804c03c
 8048826:	68 60 00 00 00       	push   $0x60
 804882b:	e9 20 ff ff ff       	jmp    8048750 <_init+0x2c>

08048830 <exit@plt>:
 8048830:	ff 25 40 c0 04 08    	jmp    *0x804c040
 8048836:	68 68 00 00 00       	push   $0x68
 804883b:	e9 10 ff ff ff       	jmp    8048750 <_init+0x2c>

08048840 <__libc_start_main@plt>:
 8048840:	ff 25 44 c0 04 08    	jmp    *0x804c044
 8048846:	68 70 00 00 00       	push   $0x70
 804884b:	e9 00 ff ff ff       	jmp    8048750 <_init+0x2c>

08048850 <write@plt>:
 8048850:	ff 25 48 c0 04 08    	jmp    *0x804c048
 8048856:	68 78 00 00 00       	push   $0x78
 804885b:	e9 f0 fe ff ff       	jmp    8048750 <_init+0x2c>

08048860 <__isoc99_sscanf@plt>:
 8048860:	ff 25 4c c0 04 08    	jmp    *0x804c04c
 8048866:	68 80 00 00 00       	push   $0x80
 804886b:	e9 e0 fe ff ff       	jmp    8048750 <_init+0x2c>

08048870 <fopen@plt>:
 8048870:	ff 25 50 c0 04 08    	jmp    *0x804c050
 8048876:	68 88 00 00 00       	push   $0x88
 804887b:	e9 d0 fe ff ff       	jmp    8048750 <_init+0x2c>

08048880 <__errno_location@plt>:
 8048880:	ff 25 54 c0 04 08    	jmp    *0x804c054
 8048886:	68 90 00 00 00       	push   $0x90
 804888b:	e9 c0 fe ff ff       	jmp    8048750 <_init+0x2c>

08048890 <__printf_chk@plt>:
 8048890:	ff 25 58 c0 04 08    	jmp    *0x804c058
 8048896:	68 98 00 00 00       	push   $0x98
 804889b:	e9 b0 fe ff ff       	jmp    8048750 <_init+0x2c>

080488a0 <socket@plt>:
 80488a0:	ff 25 5c c0 04 08    	jmp    *0x804c05c
 80488a6:	68 a0 00 00 00       	push   $0xa0
 80488ab:	e9 a0 fe ff ff       	jmp    8048750 <_init+0x2c>

080488b0 <__fprintf_chk@plt>:
 80488b0:	ff 25 60 c0 04 08    	jmp    *0x804c060
 80488b6:	68 a8 00 00 00       	push   $0xa8
 80488bb:	e9 90 fe ff ff       	jmp    8048750 <_init+0x2c>

080488c0 <gethostbyname@plt>:
 80488c0:	ff 25 64 c0 04 08    	jmp    *0x804c064
 80488c6:	68 b0 00 00 00       	push   $0xb0
 80488cb:	e9 80 fe ff ff       	jmp    8048750 <_init+0x2c>

080488d0 <strtol@plt>:
 80488d0:	ff 25 68 c0 04 08    	jmp    *0x804c068
 80488d6:	68 b8 00 00 00       	push   $0xb8
 80488db:	e9 70 fe ff ff       	jmp    8048750 <_init+0x2c>

080488e0 <connect@plt>:
 80488e0:	ff 25 6c c0 04 08    	jmp    *0x804c06c
 80488e6:	68 c0 00 00 00       	push   $0xc0
 80488eb:	e9 60 fe ff ff       	jmp    8048750 <_init+0x2c>

080488f0 <close@plt>:
 80488f0:	ff 25 70 c0 04 08    	jmp    *0x804c070
 80488f6:	68 c8 00 00 00       	push   $0xc8
 80488fb:	e9 50 fe ff ff       	jmp    8048750 <_init+0x2c>

08048900 <__ctype_b_loc@plt>:
 8048900:	ff 25 74 c0 04 08    	jmp    *0x804c074
 8048906:	68 d0 00 00 00       	push   $0xd0
 804890b:	e9 40 fe ff ff       	jmp    8048750 <_init+0x2c>

08048910 <__sprintf_chk@plt>:
 8048910:	ff 25 78 c0 04 08    	jmp    *0x804c078
 8048916:	68 d8 00 00 00       	push   $0xd8
 804891b:	e9 30 fe ff ff       	jmp    8048750 <_init+0x2c>

Disassembly of section .text:

08048920 <_start>:
 8048920:	31 ed                	xor    %ebp,%ebp
 8048922:	5e                   	pop    %esi
 8048923:	89 e1                	mov    %esp,%ecx
 8048925:	83 e4 f0             	and    $0xfffffff0,%esp
 8048928:	50                   	push   %eax
 8048929:	54                   	push   %esp
 804892a:	52                   	push   %edx
 804892b:	68 e0 a1 04 08       	push   $0x804a1e0
 8048930:	68 70 a1 04 08       	push   $0x804a170
 8048935:	51                   	push   %ecx
 8048936:	56                   	push   %esi
 8048937:	68 1d 8a 04 08       	push   $0x8048a1d
 804893c:	e8 ff fe ff ff       	call   8048840 <__libc_start_main@plt>
 8048941:	f4                   	hlt    
 8048942:	66 90                	xchg   %ax,%ax
 8048944:	66 90                	xchg   %ax,%ax
 8048946:	66 90                	xchg   %ax,%ax
 8048948:	66 90                	xchg   %ax,%ax
 804894a:	66 90                	xchg   %ax,%ax
 804894c:	66 90                	xchg   %ax,%ax
 804894e:	66 90                	xchg   %ax,%ax

08048950 <__x86.get_pc_thunk.bx>:
 8048950:	8b 1c 24             	mov    (%esp),%ebx
 8048953:	c3                   	ret    
 8048954:	66 90                	xchg   %ax,%ax
 8048956:	66 90                	xchg   %ax,%ax
 8048958:	66 90                	xchg   %ax,%ax
 804895a:	66 90                	xchg   %ax,%ax
 804895c:	66 90                	xchg   %ax,%ax
 804895e:	66 90                	xchg   %ax,%ax

08048960 <deregister_tm_clones>:
 8048960:	b8 c3 c7 04 08       	mov    $0x804c7c3,%eax
 8048965:	2d c0 c7 04 08       	sub    $0x804c7c0,%eax
 804896a:	83 f8 06             	cmp    $0x6,%eax
 804896d:	77 01                	ja     8048970 <deregister_tm_clones+0x10>
 804896f:	c3                   	ret    
 8048970:	b8 00 00 00 00       	mov    $0x0,%eax
 8048975:	85 c0                	test   %eax,%eax
 8048977:	74 f6                	je     804896f <deregister_tm_clones+0xf>
 8048979:	55                   	push   %ebp
 804897a:	89 e5                	mov    %esp,%ebp
 804897c:	83 ec 18             	sub    $0x18,%esp
 804897f:	c7 04 24 c0 c7 04 08 	movl   $0x804c7c0,(%esp)
 8048986:	ff d0                	call   *%eax
 8048988:	c9                   	leave  
 8048989:	c3                   	ret    
 804898a:	8d b6 00 00 00 00    	lea    0x0(%esi),%esi

08048990 <register_tm_clones>:
 8048990:	b8 c0 c7 04 08       	mov    $0x804c7c0,%eax
 8048995:	2d c0 c7 04 08       	sub    $0x804c7c0,%eax
 804899a:	c1 f8 02             	sar    $0x2,%eax
 804899d:	89 c2                	mov    %eax,%edx
 804899f:	c1 ea 1f             	shr    $0x1f,%edx
 80489a2:	01 d0                	add    %edx,%eax
 80489a4:	d1 f8                	sar    %eax
 80489a6:	75 01                	jne    80489a9 <register_tm_clones+0x19>
 80489a8:	c3                   	ret    
 80489a9:	ba 00 00 00 00       	mov    $0x0,%edx
 80489ae:	85 d2                	test   %edx,%edx
 80489b0:	74 f6                	je     80489a8 <register_tm_clones+0x18>
 80489b2:	55                   	push   %ebp
 80489b3:	89 e5                	mov    %esp,%ebp
 80489b5:	83 ec 18             	sub    $0x18,%esp
 80489b8:	89 44 24 04          	mov    %eax,0x4(%esp)
 80489bc:	c7 04 24 c0 c7 04 08 	movl   $0x804c7c0,(%esp)
 80489c3:	ff d2                	call   *%edx
 80489c5:	c9                   	leave  
 80489c6:	c3                   	ret    
 80489c7:	89 f6                	mov    %esi,%esi
 80489c9:	8d bc 27 00 00 00 00 	lea    0x0(%edi,%eiz,1),%edi

080489d0 <__do_global_dtors_aux>:
 80489d0:	80 3d e4 c7 04 08 00 	cmpb   $0x0,0x804c7e4
 80489d7:	75 13                	jne    80489ec <__do_global_dtors_aux+0x1c>
 80489d9:	55                   	push   %ebp
 80489da:	89 e5                	mov    %esp,%ebp
 80489dc:	83 ec 08             	sub    $0x8,%esp
 80489df:	e8 7c ff ff ff       	call   8048960 <deregister_tm_clones>
 80489e4:	c6 05 e4 c7 04 08 01 	movb   $0x1,0x804c7e4
 80489eb:	c9                   	leave  
 80489ec:	f3 c3                	repz ret 
 80489ee:	66 90                	xchg   %ax,%ax

080489f0 <frame_dummy>:
 80489f0:	a1 10 bf 04 08       	mov    0x804bf10,%eax
 80489f5:	85 c0                	test   %eax,%eax
 80489f7:	74 1f                	je     8048a18 <frame_dummy+0x28>
 80489f9:	b8 00 00 00 00       	mov    $0x0,%eax
 80489fe:	85 c0                	test   %eax,%eax
 8048a00:	74 16                	je     8048a18 <frame_dummy+0x28>
 8048a02:	55                   	push   %ebp
 8048a03:	89 e5                	mov    %esp,%ebp
 8048a05:	83 ec 18             	sub    $0x18,%esp
 8048a08:	c7 04 24 10 bf 04 08 	movl   $0x804bf10,(%esp)
 8048a0f:	ff d0                	call   *%eax
 8048a11:	c9                   	leave  
 8048a12:	e9 79 ff ff ff       	jmp    8048990 <register_tm_clones>
 8048a17:	90                   	nop
 8048a18:	e9 73 ff ff ff       	jmp    8048990 <register_tm_clones>

08048a1d <main>:
 8048a1d:	55                   	push   %ebp
 8048a1e:	89 e5                	mov    %esp,%ebp
 8048a20:	53                   	push   %ebx
 8048a21:	83 e4 f0             	and    $0xfffffff0,%esp
 8048a24:	83 ec 10             	sub    $0x10,%esp
 8048a27:	8b 5d 0c             	mov    0xc(%ebp),%ebx
 8048a2a:	83 7d 08 01          	cmpl   $0x1,0x8(%ebp)
 8048a2e:	75 0c                	jne    8048a3c <main+0x1f>
 8048a30:	a1 c4 c7 04 08       	mov    0x804c7c4,%eax
 8048a35:	a3 ec c7 04 08       	mov    %eax,0x804c7ec
 8048a3a:	eb 75                	jmp    8048ab1 <main+0x94>
 8048a3c:	83 7d 08 02          	cmpl   $0x2,0x8(%ebp)
 8048a40:	75 49                	jne    8048a8b <main+0x6e>
 8048a42:	c7 44 24 04 08 a2 04 	movl   $0x804a208,0x4(%esp)
 8048a49:	08 
 8048a4a:	8b 43 04             	mov    0x4(%ebx),%eax
 8048a4d:	89 04 24             	mov    %eax,(%esp)
 8048a50:	e8 1b fe ff ff       	call   8048870 <fopen@plt>
 8048a55:	a3 ec c7 04 08       	mov    %eax,0x804c7ec
 8048a5a:	85 c0                	test   %eax,%eax
 8048a5c:	75 53                	jne    8048ab1 <main+0x94>
 8048a5e:	8b 43 04             	mov    0x4(%ebx),%eax
 8048a61:	89 44 24 0c          	mov    %eax,0xc(%esp)
 8048a65:	8b 03                	mov    (%ebx),%eax
 8048a67:	89 44 24 08          	mov    %eax,0x8(%esp)
 8048a6b:	c7 44 24 04 0a a2 04 	movl   $0x804a20a,0x4(%esp)
 8048a72:	08 
 8048a73:	c7 04 24 01 00 00 00 	movl   $0x1,(%esp)
 8048a7a:	e8 11 fe ff ff       	call   8048890 <__printf_chk@plt>
 8048a7f:	c7 04 24 08 00 00 00 	movl   $0x8,(%esp)
 8048a86:	e8 a5 fd ff ff       	call   8048830 <exit@plt>
 8048a8b:	8b 03                	mov    (%ebx),%eax
 8048a8d:	89 44 24 08          	mov    %eax,0x8(%esp)
 8048a91:	c7 44 24 04 27 a2 04 	movl   $0x804a227,0x4(%esp)
 8048a98:	08 
 8048a99:	c7 04 24 01 00 00 00 	movl   $0x1,(%esp)
 8048aa0:	e8 eb fd ff ff       	call   8048890 <__printf_chk@plt>
 8048aa5:	c7 04 24 08 00 00 00 	movl   $0x8,(%esp)
 8048aac:	e8 7f fd ff ff       	call   8048830 <exit@plt>
 8048ab1:	e8 5d 05 00 00       	call   8049013 <initialize_bomb>
 8048ab6:	c7 04 24 8c a2 04 08 	movl   $0x804a28c,(%esp)
 8048abd:	e8 2e fd ff ff       	call   80487f0 <puts@plt>
 8048ac2:	c7 04 24 c8 a2 04 08 	movl   $0x804a2c8,(%esp)
 8048ac9:	e8 22 fd ff ff       	call   80487f0 <puts@plt>
 8048ace:	e8 73 07 00 00       	call   8049246 <read_line>
 8048ad3:	89 04 24             	mov    %eax,(%esp)
 8048ad6:	e8 a5 00 00 00       	call   8048b80 <phase_1>
 8048adb:	e8 5d 08 00 00       	call   804933d <phase_defused>
 8048ae0:	c7 04 24 f4 a2 04 08 	movl   $0x804a2f4,(%esp)
 8048ae7:	e8 04 fd ff ff       	call   80487f0 <puts@plt>
 8048aec:	e8 55 07 00 00       	call   8049246 <read_line>
 8048af1:	89 04 24             	mov    %eax,(%esp)
 8048af4:	e8 ab 00 00 00       	call   8048ba4 <phase_2>
 8048af9:	e8 3f 08 00 00       	call   804933d <phase_defused>
 8048afe:	c7 04 24 41 a2 04 08 	movl   $0x804a241,(%esp)
 8048b05:	e8 e6 fc ff ff       	call   80487f0 <puts@plt>
 8048b0a:	e8 37 07 00 00       	call   8049246 <read_line>
 8048b0f:	89 04 24             	mov    %eax,(%esp)
 8048b12:	e8 da 00 00 00       	call   8048bf1 <phase_3>
 8048b17:	e8 21 08 00 00       	call   804933d <phase_defused>
 8048b1c:	c7 04 24 5f a2 04 08 	movl   $0x804a25f,(%esp)
 8048b23:	e8 c8 fc ff ff       	call   80487f0 <puts@plt>
 8048b28:	e8 19 07 00 00       	call   8049246 <read_line>
 8048b2d:	89 04 24             	mov    %eax,(%esp)
 8048b30:	e8 9c 01 00 00       	call   8048cd1 <phase_4>
 8048b35:	e8 03 08 00 00       	call   804933d <phase_defused>
 8048b3a:	c7 04 24 20 a3 04 08 	movl   $0x804a320,(%esp)
 8048b41:	e8 aa fc ff ff       	call   80487f0 <puts@plt>
 8048b46:	e8 fb 06 00 00       	call   8049246 <read_line>
 8048b4b:	89 04 24             	mov    %eax,(%esp)
 8048b4e:	e8 e2 01 00 00       	call   8048d35 <phase_5>
 8048b53:	e8 e5 07 00 00       	call   804933d <phase_defused>
 8048b58:	c7 04 24 6e a2 04 08 	movl   $0x804a26e,(%esp)
 8048b5f:	e8 8c fc ff ff       	call   80487f0 <puts@plt>
 8048b64:	e8 dd 06 00 00       	call   8049246 <read_line>
 8048b69:	89 04 24             	mov    %eax,(%esp)
 8048b6c:	e8 0d 02 00 00       	call   8048d7e <phase_6>
 8048b71:	e8 c7 07 00 00       	call   804933d <phase_defused>
 8048b76:	b8 00 00 00 00       	mov    $0x0,%eax
 8048b7b:	8b 5d fc             	mov    -0x4(%ebp),%ebx
 8048b7e:	c9                   	leave  
 8048b7f:	c3                   	ret    

08048b80 <phase_1>:
 8048b80:	55                   	push   %ebp
 8048b81:	89 e5                	mov    %esp,%ebp
 8048b83:	83 ec 18             	sub    $0x18,%esp
 8048b86:	c7 44 24 04 44 a3 04 	movl   $0x804a344,0x4(%esp)
 8048b8d:	08 
 8048b8e:	8b 45 08             	mov    0x8(%ebp),%eax
 8048b91:	89 04 24             	mov    %eax,(%esp)
 8048b94:	e8 14 04 00 00       	call   8048fad <strings_not_equal>
 8048b99:	85 c0                	test   %eax,%eax
 8048b9b:	74 05                	je     8048ba2 <phase_1+0x22>
 8048b9d:	e8 13 06 00 00       	call   80491b5 <explode_bomb>
 8048ba2:	c9                   	leave  
 8048ba3:	c3                   	ret    

08048ba4 <phase_2>:
 8048ba4:	55                   	push   %ebp
 8048ba5:	89 e5                	mov    %esp,%ebp
 8048ba7:	56                   	push   %esi
 8048ba8:	53                   	push   %ebx
 8048ba9:	83 ec 30             	sub    $0x30,%esp
 8048bac:	8d 45 e0             	lea    -0x20(%ebp),%eax
 8048baf:	89 44 24 04          	mov    %eax,0x4(%esp)
 8048bb3:	8b 45 08             	mov    0x8(%ebp),%eax
 8048bb6:	89 04 24             	mov    %eax,(%esp)
 8048bb9:	e8 39 06 00 00       	call   80491f7 <read_six_numbers>
 8048bbe:	83 7d e0 01          	cmpl   $0x1,-0x20(%ebp)
 8048bc2:	74 1e                	je     8048be2 <phase_2+0x3e>
 8048bc4:	e8 ec 05 00 00       	call   80491b5 <explode_bomb>
 8048bc9:	eb 17                	jmp    8048be2 <phase_2+0x3e>
 8048bcb:	8b 43 fc             	mov    -0x4(%ebx),%eax
 8048bce:	01 c0                	add    %eax,%eax
 8048bd0:	39 03                	cmp    %eax,(%ebx)
 8048bd2:	74 05                	je     8048bd9 <phase_2+0x35>
 8048bd4:	e8 dc 05 00 00       	call   80491b5 <explode_bomb>
 8048bd9:	83 c3 04             	add    $0x4,%ebx
 8048bdc:	39 f3                	cmp    %esi,%ebx
 8048bde:	75 eb                	jne    8048bcb <phase_2+0x27>
 8048be0:	eb 08                	jmp    8048bea <phase_2+0x46>
 8048be2:	8d 5d e4             	lea    -0x1c(%ebp),%ebx
 8048be5:	8d 75 f8             	lea    -0x8(%ebp),%esi
 8048be8:	eb e1                	jmp    8048bcb <phase_2+0x27>
 8048bea:	83 c4 30             	add    $0x30,%esp
 8048bed:	5b                   	pop    %ebx
 8048bee:	5e                   	pop    %esi
 8048bef:	5d                   	pop    %ebp
 8048bf0:	c3                   	ret    

08048bf1 <phase_3>:
 8048bf1:	55                   	push   %ebp
 8048bf2:	89 e5                	mov    %esp,%ebp
 8048bf4:	83 ec 28             	sub    $0x28,%esp
 8048bf7:	8d 45 f4             	lea    -0xc(%ebp),%eax
 8048bfa:	89 44 24 0c          	mov    %eax,0xc(%esp)
 8048bfe:	8d 45 f0             	lea    -0x10(%ebp),%eax
 8048c01:	89 44 24 08          	mov    %eax,0x8(%esp)
 8048c05:	c7 44 24 04 9f a5 04 	movl   $0x804a59f,0x4(%esp)
 8048c0c:	08 
 8048c0d:	8b 45 08             	mov    0x8(%ebp),%eax
 8048c10:	89 04 24             	mov    %eax,(%esp)
 8048c13:	e8 48 fc ff ff       	call   8048860 <__isoc99_sscanf@plt>
 8048c18:	83 f8 01             	cmp    $0x1,%eax
 8048c1b:	7f 05                	jg     8048c22 <phase_3+0x31>
 8048c1d:	e8 93 05 00 00       	call   80491b5 <explode_bomb>
 8048c22:	83 7d f0 07          	cmpl   $0x7,-0x10(%ebp)
 8048c26:	77 3b                	ja     8048c63 <phase_3+0x72>
 8048c28:	8b 45 f0             	mov    -0x10(%ebp),%eax
 8048c2b:	ff 24 85 60 a3 04 08 	jmp    *0x804a360(,%eax,4)
 8048c32:	b8 52 01 00 00       	mov    $0x152,%eax
 8048c37:	eb 3b                	jmp    8048c74 <phase_3+0x83>
 8048c39:	b8 a3 00 00 00       	mov    $0xa3,%eax
 8048c3e:	eb 34                	jmp    8048c74 <phase_3+0x83>
 8048c40:	b8 2e 03 00 00       	mov    $0x32e,%eax
 8048c45:	eb 2d                	jmp    8048c74 <phase_3+0x83>
 8048c47:	b8 c9 01 00 00       	mov    $0x1c9,%eax
 8048c4c:	eb 26                	jmp    8048c74 <phase_3+0x83>
 8048c4e:	b8 73 03 00 00       	mov    $0x373,%eax
 8048c53:	eb 1f                	jmp    8048c74 <phase_3+0x83>
 8048c55:	b8 9a 03 00 00       	mov    $0x39a,%eax
 8048c5a:	eb 18                	jmp    8048c74 <phase_3+0x83>
 8048c5c:	b8 90 00 00 00       	mov    $0x90,%eax
 8048c61:	eb 11                	jmp    8048c74 <phase_3+0x83>
 8048c63:	e8 4d 05 00 00       	call   80491b5 <explode_bomb>
 8048c68:	b8 00 00 00 00       	mov    $0x0,%eax
 8048c6d:	eb 05                	jmp    8048c74 <phase_3+0x83>
 8048c6f:	b8 bb 00 00 00       	mov    $0xbb,%eax
 8048c74:	3b 45 f4             	cmp    -0xc(%ebp),%eax
 8048c77:	74 05                	je     8048c7e <phase_3+0x8d>
 8048c79:	e8 37 05 00 00       	call   80491b5 <explode_bomb>
 8048c7e:	c9                   	leave  
 8048c7f:	c3                   	ret    

08048c80 <func4>:
 8048c80:	55                   	push   %ebp
 8048c81:	89 e5                	mov    %esp,%ebp
 8048c83:	83 ec 18             	sub    $0x18,%esp
 8048c86:	8b 55 08             	mov    0x8(%ebp),%edx
 8048c89:	8b 45 0c             	mov    0xc(%ebp),%eax
 8048c8c:	8b 4d 10             	mov    0x10(%ebp),%ecx
 8048c8f:	29 c1                	sub    %eax,%ecx
 8048c91:	d1 e9                	shr    %ecx
 8048c93:	01 c1                	add    %eax,%ecx
 8048c95:	39 d1                	cmp    %edx,%ecx
 8048c97:	76 15                	jbe    8048cae <func4+0x2e>
 8048c99:	49                   	dec    %ecx
 8048c9a:	89 4c 24 08          	mov    %ecx,0x8(%esp)
 8048c9e:	89 44 24 04          	mov    %eax,0x4(%esp)
 8048ca2:	89 14 24             	mov    %edx,(%esp)
 8048ca5:	e8 d6 ff ff ff       	call   8048c80 <func4>
 8048caa:	01 c0                	add    %eax,%eax
 8048cac:	eb 21                	jmp    8048ccf <func4+0x4f>
 8048cae:	b8 00 00 00 00       	mov    $0x0,%eax
 8048cb3:	39 d1                	cmp    %edx,%ecx
 8048cb5:	73 18                	jae    8048ccf <func4+0x4f>
 8048cb7:	8b 45 10             	mov    0x10(%ebp),%eax
 8048cba:	89 44 24 08          	mov    %eax,0x8(%esp)
 8048cbe:	41                   	inc    %ecx
 8048cbf:	89 4c 24 04          	mov    %ecx,0x4(%esp)
 8048cc3:	89 14 24             	mov    %edx,(%esp)
 8048cc6:	e8 b5 ff ff ff       	call   8048c80 <func4>
 8048ccb:	8d 44 00 01          	lea    0x1(%eax,%eax,1),%eax
 8048ccf:	c9                   	leave  
 8048cd0:	c3                   	ret    

08048cd1 <phase_4>:
 8048cd1:	55                   	push   %ebp
 8048cd2:	89 e5                	mov    %esp,%ebp
 8048cd4:	83 ec 28             	sub    $0x28,%esp
 8048cd7:	8d 45 f4             	lea    -0xc(%ebp),%eax
 8048cda:	89 44 24 0c          	mov    %eax,0xc(%esp)
 8048cde:	8d 45 f0             	lea    -0x10(%ebp),%eax
 8048ce1:	89 44 24 08          	mov    %eax,0x8(%esp)
 8048ce5:	c7 44 24 04 9f a5 04 	movl   $0x804a59f,0x4(%esp)
 8048cec:	08 
 8048ced:	8b 45 08             	mov    0x8(%ebp),%eax
 8048cf0:	89 04 24             	mov    %eax,(%esp)
 8048cf3:	e8 68 fb ff ff       	call   8048860 <__isoc99_sscanf@plt>
 8048cf8:	83 f8 02             	cmp    $0x2,%eax
 8048cfb:	75 06                	jne    8048d03 <phase_4+0x32>
 8048cfd:	83 7d f0 0e          	cmpl   $0xe,-0x10(%ebp)
 8048d01:	76 05                	jbe    8048d08 <phase_4+0x37>
 8048d03:	e8 ad 04 00 00       	call   80491b5 <explode_bomb>
 8048d08:	c7 44 24 08 0e 00 00 	movl   $0xe,0x8(%esp)
 8048d0f:	00 
 8048d10:	c7 44 24 04 00 00 00 	movl   $0x0,0x4(%esp)
 8048d17:	00 
 8048d18:	8b 45 f0             	mov    -0x10(%ebp),%eax
 8048d1b:	89 04 24             	mov    %eax,(%esp)
 8048d1e:	e8 5d ff ff ff       	call   8048c80 <func4>
 8048d23:	83 f8 01             	cmp    $0x1,%eax
 8048d26:	75 06                	jne    8048d2e <phase_4+0x5d>
 8048d28:	83 7d f4 01          	cmpl   $0x1,-0xc(%ebp)
 8048d2c:	74 05                	je     8048d33 <phase_4+0x62>
 8048d2e:	e8 82 04 00 00       	call   80491b5 <explode_bomb>
 8048d33:	c9                   	leave  
 8048d34:	c3                   	ret    

08048d35 <phase_5>:
 8048d35:	55                   	push   %ebp
 8048d36:	89 e5                	mov    %esp,%ebp
 8048d38:	53                   	push   %ebx
 8048d39:	83 ec 14             	sub    $0x14,%esp
 8048d3c:	8b 5d 08             	mov    0x8(%ebp),%ebx
 8048d3f:	89 1c 24             	mov    %ebx,(%esp)
 8048d42:	e8 46 02 00 00       	call   8048f8d <string_length>
 8048d47:	83 f8 06             	cmp    $0x6,%eax
 8048d4a:	74 05                	je     8048d51 <phase_5+0x1c>
 8048d4c:	e8 64 04 00 00       	call   80491b5 <explode_bomb>
 8048d51:	ba 00 00 00 00       	mov    $0x0,%edx
 8048d56:	b8 00 00 00 00       	mov    $0x0,%eax
 8048d5b:	8a 0c 03             	mov    (%ebx,%eax,1),%cl
 8048d5e:	83 e1 0f             	and    $0xf,%ecx
 8048d61:	03 14 8d 80 a3 04 08 	add    0x804a380(,%ecx,4),%edx
 8048d68:	40                   	inc    %eax
 8048d69:	83 f8 06             	cmp    $0x6,%eax
 8048d6c:	75 ed                	jne    8048d5b <phase_5+0x26>
 8048d6e:	83 fa 34             	cmp    $0x34,%edx
 8048d71:	74 05                	je     8048d78 <phase_5+0x43>
 8048d73:	e8 3d 04 00 00       	call   80491b5 <explode_bomb>
 8048d78:	83 c4 14             	add    $0x14,%esp
 8048d7b:	5b                   	pop    %ebx
 8048d7c:	5d                   	pop    %ebp
 8048d7d:	c3                   	ret    

08048d7e <phase_6>:
 8048d7e:	55                   	push   %ebp
 8048d7f:	89 e5                	mov    %esp,%ebp
 8048d81:	56                   	push   %esi
 8048d82:	53                   	push   %ebx
 8048d83:	83 ec 40             	sub    $0x40,%esp
 8048d86:	8d 45 c8             	lea    -0x38(%ebp),%eax
 8048d89:	89 44 24 04          	mov    %eax,0x4(%esp)
 8048d8d:	8b 45 08             	mov    0x8(%ebp),%eax
 8048d90:	89 04 24             	mov    %eax,(%esp)
 8048d93:	e8 5f 04 00 00       	call   80491f7 <read_six_numbers>
 8048d98:	be 00 00 00 00       	mov    $0x0,%esi
 8048d9d:	8b 44 b5 c8          	mov    -0x38(%ebp,%esi,4),%eax
 8048da1:	48                   	dec    %eax
 8048da2:	83 f8 05             	cmp    $0x5,%eax
 8048da5:	76 05                	jbe    8048dac <phase_6+0x2e>
 8048da7:	e8 09 04 00 00       	call   80491b5 <explode_bomb>
 8048dac:	46                   	inc    %esi
 8048dad:	83 fe 06             	cmp    $0x6,%esi
 8048db0:	75 07                	jne    8048db9 <phase_6+0x3b>
 8048db2:	bb 00 00 00 00       	mov    $0x0,%ebx
 8048db7:	eb 32                	jmp    8048deb <phase_6+0x6d>
 8048db9:	89 f3                	mov    %esi,%ebx
 8048dbb:	8b 44 9d c8          	mov    -0x38(%ebp,%ebx,4),%eax
 8048dbf:	39 44 b5 c4          	cmp    %eax,-0x3c(%ebp,%esi,4)
 8048dc3:	75 05                	jne    8048dca <phase_6+0x4c>
 8048dc5:	e8 eb 03 00 00       	call   80491b5 <explode_bomb>
 8048dca:	43                   	inc    %ebx
 8048dcb:	83 fb 05             	cmp    $0x5,%ebx
 8048dce:	7e eb                	jle    8048dbb <phase_6+0x3d>
 8048dd0:	eb cb                	jmp    8048d9d <phase_6+0x1f>
 8048dd2:	8b 52 08             	mov    0x8(%edx),%edx
 8048dd5:	40                   	inc    %eax
 8048dd6:	39 c8                	cmp    %ecx,%eax
 8048dd8:	75 f8                	jne    8048dd2 <phase_6+0x54>
 8048dda:	eb 05                	jmp    8048de1 <phase_6+0x63>
 8048ddc:	ba 54 c1 04 08       	mov    $0x804c154,%edx
 8048de1:	89 54 b5 e0          	mov    %edx,-0x20(%ebp,%esi,4)
 8048de5:	43                   	inc    %ebx
 8048de6:	83 fb 06             	cmp    $0x6,%ebx
 8048de9:	74 17                	je     8048e02 <phase_6+0x84>
 8048deb:	89 de                	mov    %ebx,%esi
 8048ded:	8b 4c 9d c8          	mov    -0x38(%ebp,%ebx,4),%ecx
 8048df1:	83 f9 01             	cmp    $0x1,%ecx
 8048df4:	7e e6                	jle    8048ddc <phase_6+0x5e>
 8048df6:	b8 01 00 00 00       	mov    $0x1,%eax
 8048dfb:	ba 54 c1 04 08       	mov    $0x804c154,%edx
 8048e00:	eb d0                	jmp    8048dd2 <phase_6+0x54>
 8048e02:	8b 5d e0             	mov    -0x20(%ebp),%ebx
 8048e05:	8d 45 e4             	lea    -0x1c(%ebp),%eax
 8048e08:	8d 75 f8             	lea    -0x8(%ebp),%esi
 8048e0b:	89 d9                	mov    %ebx,%ecx
 8048e0d:	8b 10                	mov    (%eax),%edx
 8048e0f:	89 51 08             	mov    %edx,0x8(%ecx)
 8048e12:	83 c0 04             	add    $0x4,%eax
 8048e15:	39 f0                	cmp    %esi,%eax
 8048e17:	74 04                	je     8048e1d <phase_6+0x9f>
 8048e19:	89 d1                	mov    %edx,%ecx
 8048e1b:	eb f0                	jmp    8048e0d <phase_6+0x8f>
 8048e1d:	c7 42 08 00 00 00 00 	movl   $0x0,0x8(%edx)
 8048e24:	be 05 00 00 00       	mov    $0x5,%esi
 8048e29:	8b 43 08             	mov    0x8(%ebx),%eax
 8048e2c:	8b 00                	mov    (%eax),%eax
 8048e2e:	39 03                	cmp    %eax,(%ebx)
 8048e30:	7d 05                	jge    8048e37 <phase_6+0xb9>
 8048e32:	e8 7e 03 00 00       	call   80491b5 <explode_bomb>
 8048e37:	8b 5b 08             	mov    0x8(%ebx),%ebx
 8048e3a:	4e                   	dec    %esi
 8048e3b:	75 ec                	jne    8048e29 <phase_6+0xab>
 8048e3d:	83 c4 40             	add    $0x40,%esp
 8048e40:	5b                   	pop    %ebx
 8048e41:	5e                   	pop    %esi
 8048e42:	5d                   	pop    %ebp
 8048e43:	c3                   	ret    

08048e44 <fun7>:
 8048e44:	55                   	push   %ebp
 8048e45:	89 e5                	mov    %esp,%ebp
 8048e47:	53                   	push   %ebx
 8048e48:	83 ec 14             	sub    $0x14,%esp
 8048e4b:	8b 55 08             	mov    0x8(%ebp),%edx
 8048e4e:	8b 4d 0c             	mov    0xc(%ebp),%ecx
 8048e51:	85 d2                	test   %edx,%edx
 8048e53:	74 37                	je     8048e8c <fun7+0x48>
 8048e55:	8b 1a                	mov    (%edx),%ebx
 8048e57:	39 cb                	cmp    %ecx,%ebx
 8048e59:	7e 13                	jle    8048e6e <fun7+0x2a>
 8048e5b:	89 4c 24 04          	mov    %ecx,0x4(%esp)
 8048e5f:	8b 42 04             	mov    0x4(%edx),%eax
 8048e62:	89 04 24             	mov    %eax,(%esp)
 8048e65:	e8 da ff ff ff       	call   8048e44 <fun7>
 8048e6a:	01 c0                	add    %eax,%eax
 8048e6c:	eb 23                	jmp    8048e91 <fun7+0x4d>
 8048e6e:	b8 00 00 00 00       	mov    $0x0,%eax
 8048e73:	39 cb                	cmp    %ecx,%ebx
 8048e75:	74 1a                	je     8048e91 <fun7+0x4d>
 8048e77:	89 4c 24 04          	mov    %ecx,0x4(%esp)
 8048e7b:	8b 42 08             	mov    0x8(%edx),%eax
 8048e7e:	89 04 24             	mov    %eax,(%esp)
 8048e81:	e8 be ff ff ff       	call   8048e44 <fun7>
 8048e86:	8d 44 00 01          	lea    0x1(%eax,%eax,1),%eax
 8048e8a:	eb 05                	jmp    8048e91 <fun7+0x4d>
 8048e8c:	b8 ff ff ff ff       	mov    $0xffffffff,%eax
 8048e91:	83 c4 14             	add    $0x14,%esp
 8048e94:	5b                   	pop    %ebx
 8048e95:	5d                   	pop    %ebp
 8048e96:	c3                   	ret    

08048e97 <secret_phase>:
 8048e97:	55                   	push   %ebp
 8048e98:	89 e5                	mov    %esp,%ebp
 8048e9a:	53                   	push   %ebx
 8048e9b:	83 ec 14             	sub    $0x14,%esp
 8048e9e:	e8 a3 03 00 00       	call   8049246 <read_line>
 8048ea3:	c7 44 24 08 0a 00 00 	movl   $0xa,0x8(%esp)
 8048eaa:	00 
 8048eab:	c7 44 24 04 00 00 00 	movl   $0x0,0x4(%esp)
 8048eb2:	00 
 8048eb3:	89 04 24             	mov    %eax,(%esp)
 8048eb6:	e8 15 fa ff ff       	call   80488d0 <strtol@plt>
 8048ebb:	89 c3                	mov    %eax,%ebx
 8048ebd:	8d 40 ff             	lea    -0x1(%eax),%eax
 8048ec0:	3d e8 03 00 00       	cmp    $0x3e8,%eax
 8048ec5:	76 05                	jbe    8048ecc <secret_phase+0x35>
 8048ec7:	e8 e9 02 00 00       	call   80491b5 <explode_bomb>
 8048ecc:	89 5c 24 04          	mov    %ebx,0x4(%esp)
 8048ed0:	c7 04 24 a0 c0 04 08 	movl   $0x804c0a0,(%esp)
 8048ed7:	e8 68 ff ff ff       	call   8048e44 <fun7>
 8048edc:	83 f8 06             	cmp    $0x6,%eax
 8048edf:	74 05                	je     8048ee6 <secret_phase+0x4f>
 8048ee1:	e8 cf 02 00 00       	call   80491b5 <explode_bomb>
 8048ee6:	c7 04 24 c0 a3 04 08 	movl   $0x804a3c0,(%esp)
 8048eed:	e8 fe f8 ff ff       	call   80487f0 <puts@plt>
 8048ef2:	e8 46 04 00 00       	call   804933d <phase_defused>
 8048ef7:	83 c4 14             	add    $0x14,%esp
 8048efa:	5b                   	pop    %ebx
 8048efb:	5d                   	pop    %ebp
 8048efc:	c3                   	ret    

08048efd <sig_handler>:
 8048efd:	55                   	push   %ebp
 8048efe:	89 e5                	mov    %esp,%ebp
 8048f00:	83 ec 18             	sub    $0x18,%esp
 8048f03:	c7 04 24 e8 a3 04 08 	movl   $0x804a3e8,(%esp)
 8048f0a:	e8 e1 f8 ff ff       	call   80487f0 <puts@plt>
 8048f0f:	c7 04 24 03 00 00 00 	movl   $0x3,(%esp)
 8048f16:	e8 85 f8 ff ff       	call   80487a0 <sleep@plt>
 8048f1b:	c7 44 24 04 35 a5 04 	movl   $0x804a535,0x4(%esp)
 8048f22:	08 
 8048f23:	c7 04 24 01 00 00 00 	movl   $0x1,(%esp)
 8048f2a:	e8 61 f9 ff ff       	call   8048890 <__printf_chk@plt>
 8048f2f:	a1 e0 c7 04 08       	mov    0x804c7e0,%eax
 8048f34:	89 04 24             	mov    %eax,(%esp)
 8048f37:	e8 34 f8 ff ff       	call   8048770 <fflush@plt>
 8048f3c:	c7 04 24 01 00 00 00 	movl   $0x1,(%esp)
 8048f43:	e8 58 f8 ff ff       	call   80487a0 <sleep@plt>
 8048f48:	c7 04 24 3d a5 04 08 	movl   $0x804a53d,(%esp)
 8048f4f:	e8 9c f8 ff ff       	call   80487f0 <puts@plt>
 8048f54:	c7 04 24 10 00 00 00 	movl   $0x10,(%esp)
 8048f5b:	e8 d0 f8 ff ff       	call   8048830 <exit@plt>

08048f60 <invalid_phase>:
 8048f60:	55                   	push   %ebp
 8048f61:	89 e5                	mov    %esp,%ebp
 8048f63:	83 ec 18             	sub    $0x18,%esp
 8048f66:	8b 45 08             	mov    0x8(%ebp),%eax
 8048f69:	89 44 24 08          	mov    %eax,0x8(%esp)
 8048f6d:	c7 44 24 04 45 a5 04 	movl   $0x804a545,0x4(%esp)
 8048f74:	08 
 8048f75:	c7 04 24 01 00 00 00 	movl   $0x1,(%esp)
 8048f7c:	e8 0f f9 ff ff       	call   8048890 <__printf_chk@plt>
 8048f81:	c7 04 24 08 00 00 00 	movl   $0x8,(%esp)
 8048f88:	e8 a3 f8 ff ff       	call   8048830 <exit@plt>

08048f8d <string_length>:
 8048f8d:	55                   	push   %ebp
 8048f8e:	89 e5                	mov    %esp,%ebp
 8048f90:	8b 55 08             	mov    0x8(%ebp),%edx
 8048f93:	80 3a 00             	cmpb   $0x0,(%edx)
 8048f96:	74 0e                	je     8048fa6 <string_length+0x19>
 8048f98:	b8 00 00 00 00       	mov    $0x0,%eax
 8048f9d:	40                   	inc    %eax
 8048f9e:	80 3c 02 00          	cmpb   $0x0,(%edx,%eax,1)
 8048fa2:	75 f9                	jne    8048f9d <string_length+0x10>
 8048fa4:	eb 05                	jmp    8048fab <string_length+0x1e>
 8048fa6:	b8 00 00 00 00       	mov    $0x0,%eax
 8048fab:	5d                   	pop    %ebp
 8048fac:	c3                   	ret    

08048fad <strings_not_equal>:
 8048fad:	55                   	push   %ebp
 8048fae:	89 e5                	mov    %esp,%ebp
 8048fb0:	57                   	push   %edi
 8048fb1:	56                   	push   %esi
 8048fb2:	53                   	push   %ebx
 8048fb3:	83 ec 04             	sub    $0x4,%esp
 8048fb6:	8b 5d 08             	mov    0x8(%ebp),%ebx
 8048fb9:	8b 75 0c             	mov    0xc(%ebp),%esi
 8048fbc:	89 1c 24             	mov    %ebx,(%esp)
 8048fbf:	e8 c9 ff ff ff       	call   8048f8d <string_length>
 8048fc4:	89 c7                	mov    %eax,%edi
 8048fc6:	89 34 24             	mov    %esi,(%esp)
 8048fc9:	e8 bf ff ff ff       	call   8048f8d <string_length>
 8048fce:	ba 01 00 00 00       	mov    $0x1,%edx
 8048fd3:	39 c7                	cmp    %eax,%edi
 8048fd5:	75 32                	jne    8049009 <strings_not_equal+0x5c>
 8048fd7:	8a 03                	mov    (%ebx),%al
 8048fd9:	84 c0                	test   %al,%al
 8048fdb:	74 19                	je     8048ff6 <strings_not_equal+0x49>
 8048fdd:	3a 06                	cmp    (%esi),%al
 8048fdf:	74 06                	je     8048fe7 <strings_not_equal+0x3a>
 8048fe1:	eb 1a                	jmp    8048ffd <strings_not_equal+0x50>
 8048fe3:	3a 06                	cmp    (%esi),%al
 8048fe5:	75 1d                	jne    8049004 <strings_not_equal+0x57>
 8048fe7:	43                   	inc    %ebx
 8048fe8:	46                   	inc    %esi
 8048fe9:	8a 03                	mov    (%ebx),%al
 8048feb:	84 c0                	test   %al,%al
 8048fed:	75 f4                	jne    8048fe3 <strings_not_equal+0x36>
 8048fef:	ba 00 00 00 00       	mov    $0x0,%edx
 8048ff4:	eb 13                	jmp    8049009 <strings_not_equal+0x5c>
 8048ff6:	ba 00 00 00 00       	mov    $0x0,%edx
 8048ffb:	eb 0c                	jmp    8049009 <strings_not_equal+0x5c>
 8048ffd:	ba 01 00 00 00       	mov    $0x1,%edx
 8049002:	eb 05                	jmp    8049009 <strings_not_equal+0x5c>
 8049004:	ba 01 00 00 00       	mov    $0x1,%edx
 8049009:	89 d0                	mov    %edx,%eax
 804900b:	83 c4 04             	add    $0x4,%esp
 804900e:	5b                   	pop    %ebx
 804900f:	5e                   	pop    %esi
 8049010:	5f                   	pop    %edi
 8049011:	5d                   	pop    %ebp
 8049012:	c3                   	ret    

08049013 <initialize_bomb>:
 8049013:	55                   	push   %ebp
 8049014:	89 e5                	mov    %esp,%ebp
 8049016:	83 ec 18             	sub    $0x18,%esp
 8049019:	c7 44 24 04 fd 8e 04 	movl   $0x8048efd,0x4(%esp)
 8049020:	08 
 8049021:	c7 04 24 02 00 00 00 	movl   $0x2,(%esp)
 8049028:	e8 63 f7 ff ff       	call   8048790 <signal@plt>
 804902d:	c9                   	leave  
 804902e:	c3                   	ret    

0804902f <initialize_bomb_solve>:
 804902f:	55                   	push   %ebp
 8049030:	89 e5                	mov    %esp,%ebp
 8049032:	5d                   	pop    %ebp
 8049033:	c3                   	ret    

08049034 <blank_line>:
 8049034:	55                   	push   %ebp
 8049035:	89 e5                	mov    %esp,%ebp
 8049037:	56                   	push   %esi
 8049038:	53                   	push   %ebx
 8049039:	8b 75 08             	mov    0x8(%ebp),%esi
 804903c:	eb 12                	jmp    8049050 <blank_line+0x1c>
 804903e:	e8 bd f8 ff ff       	call   8048900 <__ctype_b_loc@plt>
 8049043:	46                   	inc    %esi
 8049044:	0f be db             	movsbl %bl,%ebx
 8049047:	8b 00                	mov    (%eax),%eax
 8049049:	f6 44 58 01 20       	testb  $0x20,0x1(%eax,%ebx,2)
 804904e:	74 0d                	je     804905d <blank_line+0x29>
 8049050:	8a 1e                	mov    (%esi),%bl
 8049052:	84 db                	test   %bl,%bl
 8049054:	75 e8                	jne    804903e <blank_line+0xa>
 8049056:	b8 01 00 00 00       	mov    $0x1,%eax
 804905b:	eb 05                	jmp    8049062 <blank_line+0x2e>
 804905d:	b8 00 00 00 00       	mov    $0x0,%eax
 8049062:	5b                   	pop    %ebx
 8049063:	5e                   	pop    %esi
 8049064:	5d                   	pop    %ebp
 8049065:	c3                   	ret    

08049066 <skip>:
 8049066:	55                   	push   %ebp
 8049067:	89 e5                	mov    %esp,%ebp
 8049069:	53                   	push   %ebx
 804906a:	83 ec 14             	sub    $0x14,%esp
 804906d:	a1 ec c7 04 08       	mov    0x804c7ec,%eax
 8049072:	89 44 24 08          	mov    %eax,0x8(%esp)
 8049076:	c7 44 24 04 50 00 00 	movl   $0x50,0x4(%esp)
 804907d:	00 
 804907e:	a1 e8 c7 04 08       	mov    0x804c7e8,%eax
 8049083:	8d 04 80             	lea    (%eax,%eax,4),%eax
 8049086:	c1 e0 04             	shl    $0x4,%eax
 8049089:	05 00 c8 04 08       	add    $0x804c800,%eax
 804908e:	89 04 24             	mov    %eax,(%esp)
 8049091:	e8 ea f6 ff ff       	call   8048780 <fgets@plt>
 8049096:	89 c3                	mov    %eax,%ebx
 8049098:	85 c0                	test   %eax,%eax
 804909a:	74 0c                	je     80490a8 <skip+0x42>
 804909c:	89 04 24             	mov    %eax,(%esp)
 804909f:	e8 90 ff ff ff       	call   8049034 <blank_line>
 80490a4:	85 c0                	test   %eax,%eax
 80490a6:	75 c5                	jne    804906d <skip+0x7>
 80490a8:	89 d8                	mov    %ebx,%eax
 80490aa:	83 c4 14             	add    $0x14,%esp
 80490ad:	5b                   	pop    %ebx
 80490ae:	5d                   	pop    %ebp
 80490af:	c3                   	ret    

080490b0 <send_msg>:
 80490b0:	55                   	push   %ebp
 80490b1:	89 e5                	mov    %esp,%ebp
 80490b3:	57                   	push   %edi
 80490b4:	53                   	push   %ebx
 80490b5:	81 ec 30 40 00 00    	sub    $0x4030,%esp
 80490bb:	65 a1 14 00 00 00    	mov    %gs:0x14,%eax
 80490c1:	89 45 f4             	mov    %eax,-0xc(%ebp)
 80490c4:	31 c0                	xor    %eax,%eax
 80490c6:	8b 15 e8 c7 04 08    	mov    0x804c7e8,%edx
 80490cc:	8d 5c 92 fb          	lea    -0x5(%edx,%edx,4),%ebx
 80490d0:	c1 e3 04             	shl    $0x4,%ebx
 80490d3:	81 c3 00 c8 04 08    	add    $0x804c800,%ebx
 80490d9:	89 df                	mov    %ebx,%edi
 80490db:	b9 ff ff ff ff       	mov    $0xffffffff,%ecx
 80490e0:	f2 ae                	repnz scas %es:(%edi),%al
 80490e2:	f7 d1                	not    %ecx
 80490e4:	83 c1 63             	add    $0x63,%ecx
 80490e7:	81 f9 00 20 00 00    	cmp    $0x2000,%ecx
 80490ed:	76 20                	jbe    804910f <send_msg+0x5f>
 80490ef:	c7 44 24 04 20 a4 04 	movl   $0x804a420,0x4(%esp)
 80490f6:	08 
 80490f7:	c7 04 24 01 00 00 00 	movl   $0x1,(%esp)
 80490fe:	e8 8d f7 ff ff       	call   8048890 <__printf_chk@plt>
 8049103:	c7 04 24 08 00 00 00 	movl   $0x8,(%esp)
 804910a:	e8 21 f7 ff ff       	call   8048830 <exit@plt>
 804910f:	b8 5e a5 04 08       	mov    $0x804a55e,%eax
 8049114:	83 7d 08 00          	cmpl   $0x0,0x8(%ebp)
 8049118:	74 05                	je     804911f <send_msg+0x6f>
 804911a:	b8 56 a5 04 08       	mov    $0x804a556,%eax
 804911f:	89 5c 24 1c          	mov    %ebx,0x1c(%esp)
 8049123:	89 54 24 18          	mov    %edx,0x18(%esp)
 8049127:	89 44 24 14          	mov    %eax,0x14(%esp)
 804912b:	a1 a0 c5 04 08       	mov    0x804c5a0,%eax
 8049130:	89 44 24 10          	mov    %eax,0x10(%esp)
 8049134:	c7 44 24 0c 67 a5 04 	movl   $0x804a567,0xc(%esp)
 804913b:	08 
 804913c:	c7 44 24 08 00 20 00 	movl   $0x2000,0x8(%esp)
 8049143:	00 
 8049144:	c7 44 24 04 01 00 00 	movl   $0x1,0x4(%esp)
 804914b:	00 
 804914c:	8d 9d f4 bf ff ff    	lea    -0x400c(%ebp),%ebx
 8049152:	89 1c 24             	mov    %ebx,(%esp)
 8049155:	e8 b6 f7 ff ff       	call   8048910 <__sprintf_chk@plt>
 804915a:	8d 85 f4 df ff ff    	lea    -0x200c(%ebp),%eax
 8049160:	89 44 24 0c          	mov    %eax,0xc(%esp)
 8049164:	c7 44 24 08 00 00 00 	movl   $0x0,0x8(%esp)
 804916b:	00 
 804916c:	89 5c 24 04          	mov    %ebx,0x4(%esp)
 8049170:	c7 04 24 a0 c1 04 08 	movl   $0x804c1a0,(%esp)
 8049177:	e8 57 0f 00 00       	call   804a0d3 <driver_post>
 804917c:	85 c0                	test   %eax,%eax
 804917e:	79 1a                	jns    804919a <send_msg+0xea>
 8049180:	8d 85 f4 df ff ff    	lea    -0x200c(%ebp),%eax
 8049186:	89 04 24             	mov    %eax,(%esp)
 8049189:	e8 62 f6 ff ff       	call   80487f0 <puts@plt>
 804918e:	c7 04 24 00 00 00 00 	movl   $0x0,(%esp)
 8049195:	e8 96 f6 ff ff       	call   8048830 <exit@plt>
 804919a:	8b 45 f4             	mov    -0xc(%ebp),%eax
 804919d:	65 33 05 14 00 00 00 	xor    %gs:0x14,%eax
 80491a4:	74 05                	je     80491ab <send_msg+0xfb>
 80491a6:	e8 15 f6 ff ff       	call   80487c0 <__stack_chk_fail@plt>
 80491ab:	81 c4 30 40 00 00    	add    $0x4030,%esp
 80491b1:	5b                   	pop    %ebx
 80491b2:	5f                   	pop    %edi
 80491b3:	5d                   	pop    %ebp
 80491b4:	c3                   	ret    

080491b5 <explode_bomb>:
 80491b5:	55                   	push   %ebp
 80491b6:	89 e5                	mov    %esp,%ebp
 80491b8:	83 ec 18             	sub    $0x18,%esp
 80491bb:	c7 04 24 73 a5 04 08 	movl   $0x804a573,(%esp)
 80491c2:	e8 29 f6 ff ff       	call   80487f0 <puts@plt>
 80491c7:	c7 04 24 7c a5 04 08 	movl   $0x804a57c,(%esp)
 80491ce:	e8 1d f6 ff ff       	call   80487f0 <puts@plt>
 80491d3:	c7 04 24 00 00 00 00 	movl   $0x0,(%esp)
 80491da:	e8 d1 fe ff ff       	call   80490b0 <send_msg>
 80491df:	c7 04 24 44 a4 04 08 	movl   $0x804a444,(%esp)
 80491e6:	e8 05 f6 ff ff       	call   80487f0 <puts@plt>
 80491eb:	c7 04 24 08 00 00 00 	movl   $0x8,(%esp)
 80491f2:	e8 39 f6 ff ff       	call   8048830 <exit@plt>

080491f7 <read_six_numbers>:
 80491f7:	55                   	push   %ebp
 80491f8:	89 e5                	mov    %esp,%ebp
 80491fa:	83 ec 28             	sub    $0x28,%esp
 80491fd:	8b 45 0c             	mov    0xc(%ebp),%eax
 8049200:	8d 50 14             	lea    0x14(%eax),%edx
 8049203:	89 54 24 1c          	mov    %edx,0x1c(%esp)
 8049207:	8d 50 10             	lea    0x10(%eax),%edx
 804920a:	89 54 24 18          	mov    %edx,0x18(%esp)
 804920e:	8d 50 0c             	lea    0xc(%eax),%edx
 8049211:	89 54 24 14          	mov    %edx,0x14(%esp)
 8049215:	8d 50 08             	lea    0x8(%eax),%edx
 8049218:	89 54 24 10          	mov    %edx,0x10(%esp)
 804921c:	8d 50 04             	lea    0x4(%eax),%edx
 804921f:	89 54 24 0c          	mov    %edx,0xc(%esp)
 8049223:	89 44 24 08          	mov    %eax,0x8(%esp)
 8049227:	c7 44 24 04 93 a5 04 	movl   $0x804a593,0x4(%esp)
 804922e:	08 
 804922f:	8b 45 08             	mov    0x8(%ebp),%eax
 8049232:	89 04 24             	mov    %eax,(%esp)
 8049235:	e8 26 f6 ff ff       	call   8048860 <__isoc99_sscanf@plt>
 804923a:	83 f8 05             	cmp    $0x5,%eax
 804923d:	7f 05                	jg     8049244 <read_six_numbers+0x4d>
 804923f:	e8 71 ff ff ff       	call   80491b5 <explode_bomb>
 8049244:	c9                   	leave  
 8049245:	c3                   	ret    

08049246 <read_line>:
 8049246:	55                   	push   %ebp
 8049247:	89 e5                	mov    %esp,%ebp
 8049249:	57                   	push   %edi
 804924a:	56                   	push   %esi
 804924b:	53                   	push   %ebx
 804924c:	83 ec 1c             	sub    $0x1c,%esp
 804924f:	e8 12 fe ff ff       	call   8049066 <skip>
 8049254:	85 c0                	test   %eax,%eax
 8049256:	75 6c                	jne    80492c4 <read_line+0x7e>
 8049258:	a1 c4 c7 04 08       	mov    0x804c7c4,%eax
 804925d:	39 05 ec c7 04 08    	cmp    %eax,0x804c7ec
 8049263:	75 18                	jne    804927d <read_line+0x37>
 8049265:	c7 04 24 a5 a5 04 08 	movl   $0x804a5a5,(%esp)
 804926c:	e8 7f f5 ff ff       	call   80487f0 <puts@plt>
 8049271:	c7 04 24 08 00 00 00 	movl   $0x8,(%esp)
 8049278:	e8 b3 f5 ff ff       	call   8048830 <exit@plt>
 804927d:	c7 04 24 c3 a5 04 08 	movl   $0x804a5c3,(%esp)
 8049284:	e8 57 f5 ff ff       	call   80487e0 <getenv@plt>
 8049289:	85 c0                	test   %eax,%eax
 804928b:	74 0c                	je     8049299 <read_line+0x53>
 804928d:	c7 04 24 00 00 00 00 	movl   $0x0,(%esp)
 8049294:	e8 97 f5 ff ff       	call   8048830 <exit@plt>
 8049299:	a1 c4 c7 04 08       	mov    0x804c7c4,%eax
 804929e:	a3 ec c7 04 08       	mov    %eax,0x804c7ec
 80492a3:	e8 be fd ff ff       	call   8049066 <skip>
 80492a8:	85 c0                	test   %eax,%eax
 80492aa:	75 18                	jne    80492c4 <read_line+0x7e>
 80492ac:	c7 04 24 a5 a5 04 08 	movl   $0x804a5a5,(%esp)
 80492b3:	e8 38 f5 ff ff       	call   80487f0 <puts@plt>
 80492b8:	c7 04 24 00 00 00 00 	movl   $0x0,(%esp)
 80492bf:	e8 6c f5 ff ff       	call   8048830 <exit@plt>
 80492c4:	8b 15 e8 c7 04 08    	mov    0x804c7e8,%edx
 80492ca:	8d 1c 92             	lea    (%edx,%edx,4),%ebx
 80492cd:	c1 e3 04             	shl    $0x4,%ebx
 80492d0:	81 c3 00 c8 04 08    	add    $0x804c800,%ebx
 80492d6:	89 df                	mov    %ebx,%edi
 80492d8:	b0 00                	mov    $0x0,%al
 80492da:	b9 ff ff ff ff       	mov    $0xffffffff,%ecx
 80492df:	f2 ae                	repnz scas %es:(%edi),%al
 80492e1:	f7 d1                	not    %ecx
 80492e3:	49                   	dec    %ecx
 80492e4:	83 f9 4e             	cmp    $0x4e,%ecx
 80492e7:	7e 35                	jle    804931e <read_line+0xd8>
 80492e9:	c7 04 24 ce a5 04 08 	movl   $0x804a5ce,(%esp)
 80492f0:	e8 fb f4 ff ff       	call   80487f0 <puts@plt>
 80492f5:	a1 e8 c7 04 08       	mov    0x804c7e8,%eax
 80492fa:	8d 50 01             	lea    0x1(%eax),%edx
 80492fd:	89 15 e8 c7 04 08    	mov    %edx,0x804c7e8
 8049303:	6b c0 50             	imul   $0x50,%eax,%eax
 8049306:	05 00 c8 04 08       	add    $0x804c800,%eax
 804930b:	be e9 a5 04 08       	mov    $0x804a5e9,%esi
 8049310:	b9 04 00 00 00       	mov    $0x4,%ecx
 8049315:	89 c7                	mov    %eax,%edi
 8049317:	f3 a5                	rep movsl %ds:(%esi),%es:(%edi)
 8049319:	e8 97 fe ff ff       	call   80491b5 <explode_bomb>
 804931e:	8d 04 92             	lea    (%edx,%edx,4),%eax
 8049321:	c1 e0 04             	shl    $0x4,%eax
 8049324:	c6 84 01 ff c7 04 08 	movb   $0x0,0x804c7ff(%ecx,%eax,1)
 804932b:	00 
 804932c:	42                   	inc    %edx
 804932d:	89 15 e8 c7 04 08    	mov    %edx,0x804c7e8
 8049333:	89 d8                	mov    %ebx,%eax
 8049335:	83 c4 1c             	add    $0x1c,%esp
 8049338:	5b                   	pop    %ebx
 8049339:	5e                   	pop    %esi
 804933a:	5f                   	pop    %edi
 804933b:	5d                   	pop    %ebp
 804933c:	c3                   	ret    

0804933d <phase_defused>:
 804933d:	55                   	push   %ebp
 804933e:	89 e5                	mov    %esp,%ebp
 8049340:	81 ec 88 00 00 00    	sub    $0x88,%esp
 8049346:	65 a1 14 00 00 00    	mov    %gs:0x14,%eax
 804934c:	89 45 f4             	mov    %eax,-0xc(%ebp)
 804934f:	31 c0                	xor    %eax,%eax
 8049351:	c7 04 24 01 00 00 00 	movl   $0x1,(%esp)
 8049358:	e8 53 fd ff ff       	call   80490b0 <send_msg>
 804935d:	83 3d e8 c7 04 08 06 	cmpl   $0x6,0x804c7e8
 8049364:	75 7a                	jne    80493e0 <phase_defused+0xa3>
 8049366:	8d 45 a4             	lea    -0x5c(%ebp),%eax
 8049369:	89 44 24 10          	mov    %eax,0x10(%esp)
 804936d:	8d 45 a0             	lea    -0x60(%ebp),%eax
 8049370:	89 44 24 0c          	mov    %eax,0xc(%esp)
 8049374:	8d 45 9c             	lea    -0x64(%ebp),%eax
 8049377:	89 44 24 08          	mov    %eax,0x8(%esp)
 804937b:	c7 44 24 04 f9 a5 04 	movl   $0x804a5f9,0x4(%esp)
 8049382:	08 
 8049383:	c7 04 24 f0 c8 04 08 	movl   $0x804c8f0,(%esp)
 804938a:	e8 d1 f4 ff ff       	call   8048860 <__isoc99_sscanf@plt>
 804938f:	83 f8 03             	cmp    $0x3,%eax
 8049392:	75 34                	jne    80493c8 <phase_defused+0x8b>
 8049394:	c7 44 24 04 02 a6 04 	movl   $0x804a602,0x4(%esp)
 804939b:	08 
 804939c:	8d 45 a4             	lea    -0x5c(%ebp),%eax
 804939f:	89 04 24             	mov    %eax,(%esp)
 80493a2:	e8 06 fc ff ff       	call   8048fad <strings_not_equal>
 80493a7:	85 c0                	test   %eax,%eax
 80493a9:	75 1d                	jne    80493c8 <phase_defused+0x8b>
 80493ab:	c7 04 24 68 a4 04 08 	movl   $0x804a468,(%esp)
 80493b2:	e8 39 f4 ff ff       	call   80487f0 <puts@plt>
 80493b7:	c7 04 24 90 a4 04 08 	movl   $0x804a490,(%esp)
 80493be:	e8 2d f4 ff ff       	call   80487f0 <puts@plt>
 80493c3:	e8 cf fa ff ff       	call   8048e97 <secret_phase>
 80493c8:	c7 04 24 c8 a4 04 08 	movl   $0x804a4c8,(%esp)
 80493cf:	e8 1c f4 ff ff       	call   80487f0 <puts@plt>
 80493d4:	c7 04 24 f4 a4 04 08 	movl   $0x804a4f4,(%esp)
 80493db:	e8 10 f4 ff ff       	call   80487f0 <puts@plt>
 80493e0:	8b 45 f4             	mov    -0xc(%ebp),%eax
 80493e3:	65 33 05 14 00 00 00 	xor    %gs:0x14,%eax
 80493ea:	74 05                	je     80493f1 <phase_defused+0xb4>
 80493ec:	e8 cf f3 ff ff       	call   80487c0 <__stack_chk_fail@plt>
 80493f1:	c9                   	leave  
 80493f2:	c3                   	ret    

080493f3 <sigalrm_handler>:
 80493f3:	55                   	push   %ebp
 80493f4:	89 e5                	mov    %esp,%ebp
 80493f6:	83 ec 18             	sub    $0x18,%esp
 80493f9:	c7 44 24 0c 00 00 00 	movl   $0x0,0xc(%esp)
 8049400:	00 
 8049401:	c7 44 24 08 58 a6 04 	movl   $0x804a658,0x8(%esp)
 8049408:	08 
 8049409:	c7 44 24 04 01 00 00 	movl   $0x1,0x4(%esp)
 8049410:	00 
 8049411:	a1 c0 c7 04 08       	mov    0x804c7c0,%eax
 8049416:	89 04 24             	mov    %eax,(%esp)
 8049419:	e8 92 f4 ff ff       	call   80488b0 <__fprintf_chk@plt>
 804941e:	c7 04 24 01 00 00 00 	movl   $0x1,(%esp)
 8049425:	e8 06 f4 ff ff       	call   8048830 <exit@plt>

0804942a <rio_readlineb>:
 804942a:	55                   	push   %ebp
 804942b:	89 e5                	mov    %esp,%ebp
 804942d:	57                   	push   %edi
 804942e:	56                   	push   %esi
 804942f:	53                   	push   %ebx
 8049430:	83 ec 4c             	sub    $0x4c,%esp
 8049433:	89 55 d0             	mov    %edx,-0x30(%ebp)
 8049436:	83 f9 01             	cmp    $0x1,%ecx
 8049439:	0f 86 c2 00 00 00    	jbe    8049501 <rio_readlineb+0xd7>
 804943f:	89 c3                	mov    %eax,%ebx
 8049441:	89 4d c4             	mov    %ecx,-0x3c(%ebp)
 8049444:	c7 45 d4 01 00 00 00 	movl   $0x1,-0x2c(%ebp)
 804944b:	8d 78 0c             	lea    0xc(%eax),%edi
 804944e:	eb 33                	jmp    8049483 <rio_readlineb+0x59>
 8049450:	c7 44 24 08 00 20 00 	movl   $0x2000,0x8(%esp)
 8049457:	00 
 8049458:	89 7c 24 04          	mov    %edi,0x4(%esp)
 804945c:	8b 03                	mov    (%ebx),%eax
 804945e:	89 04 24             	mov    %eax,(%esp)
 8049461:	e8 fa f2 ff ff       	call   8048760 <read@plt>
 8049466:	89 43 04             	mov    %eax,0x4(%ebx)
 8049469:	85 c0                	test   %eax,%eax
 804946b:	79 0f                	jns    804947c <rio_readlineb+0x52>
 804946d:	e8 0e f4 ff ff       	call   8048880 <__errno_location@plt>
 8049472:	83 38 04             	cmpl   $0x4,(%eax)
 8049475:	74 0c                	je     8049483 <rio_readlineb+0x59>
 8049477:	e9 97 00 00 00       	jmp    8049513 <rio_readlineb+0xe9>
 804947c:	85 c0                	test   %eax,%eax
 804947e:	74 6a                	je     80494ea <rio_readlineb+0xc0>
 8049480:	89 7b 08             	mov    %edi,0x8(%ebx)
 8049483:	8b 73 04             	mov    0x4(%ebx),%esi
 8049486:	85 f6                	test   %esi,%esi
 8049488:	7e c6                	jle    8049450 <rio_readlineb+0x26>
 804948a:	85 f6                	test   %esi,%esi
 804948c:	0f 95 c0             	setne  %al
 804948f:	25 ff 00 00 00       	and    $0xff,%eax
 8049494:	89 45 cc             	mov    %eax,-0x34(%ebp)
 8049497:	8b 4b 08             	mov    0x8(%ebx),%ecx
 804949a:	c7 44 24 0c 01 00 00 	movl   $0x1,0xc(%esp)
 80494a1:	00 
 80494a2:	89 44 24 08          	mov    %eax,0x8(%esp)
 80494a6:	89 4d c8             	mov    %ecx,-0x38(%ebp)
 80494a9:	89 4c 24 04          	mov    %ecx,0x4(%esp)
 80494ad:	8d 55 e7             	lea    -0x19(%ebp),%edx
 80494b0:	89 14 24             	mov    %edx,(%esp)
 80494b3:	e8 58 f3 ff ff       	call   8048810 <__memcpy_chk@plt>
 80494b8:	8b 4d c8             	mov    -0x38(%ebp),%ecx
 80494bb:	8b 55 cc             	mov    -0x34(%ebp),%edx
 80494be:	01 d1                	add    %edx,%ecx
 80494c0:	89 4b 08             	mov    %ecx,0x8(%ebx)
 80494c3:	29 d6                	sub    %edx,%esi
 80494c5:	89 73 04             	mov    %esi,0x4(%ebx)
 80494c8:	83 fa 01             	cmp    $0x1,%edx
 80494cb:	75 12                	jne    80494df <rio_readlineb+0xb5>
 80494cd:	ff 45 d0             	incl   -0x30(%ebp)
 80494d0:	8b 55 d0             	mov    -0x30(%ebp),%edx
 80494d3:	8a 45 e7             	mov    -0x19(%ebp),%al
 80494d6:	88 42 ff             	mov    %al,-0x1(%edx)
 80494d9:	3c 0a                	cmp    $0xa,%al
 80494db:	75 17                	jne    80494f4 <rio_readlineb+0xca>
 80494dd:	eb 29                	jmp    8049508 <rio_readlineb+0xde>
 80494df:	83 7d cc 00          	cmpl   $0x0,-0x34(%ebp)
 80494e3:	75 35                	jne    804951a <rio_readlineb+0xf0>
 80494e5:	8b 45 d4             	mov    -0x2c(%ebp),%eax
 80494e8:	eb 03                	jmp    80494ed <rio_readlineb+0xc3>
 80494ea:	8b 45 d4             	mov    -0x2c(%ebp),%eax
 80494ed:	83 f8 01             	cmp    $0x1,%eax
 80494f0:	75 16                	jne    8049508 <rio_readlineb+0xde>
 80494f2:	eb 2d                	jmp    8049521 <rio_readlineb+0xf7>
 80494f4:	ff 45 d4             	incl   -0x2c(%ebp)
 80494f7:	8b 45 c4             	mov    -0x3c(%ebp),%eax
 80494fa:	39 45 d4             	cmp    %eax,-0x2c(%ebp)
 80494fd:	74 09                	je     8049508 <rio_readlineb+0xde>
 80494ff:	eb 82                	jmp    8049483 <rio_readlineb+0x59>
 8049501:	c7 45 d4 01 00 00 00 	movl   $0x1,-0x2c(%ebp)
 8049508:	8b 45 d0             	mov    -0x30(%ebp),%eax
 804950b:	c6 00 00             	movb   $0x0,(%eax)
 804950e:	8b 45 d4             	mov    -0x2c(%ebp),%eax
 8049511:	eb 13                	jmp    8049526 <rio_readlineb+0xfc>
 8049513:	b8 ff ff ff ff       	mov    $0xffffffff,%eax
 8049518:	eb 0c                	jmp    8049526 <rio_readlineb+0xfc>
 804951a:	b8 ff ff ff ff       	mov    $0xffffffff,%eax
 804951f:	eb 05                	jmp    8049526 <rio_readlineb+0xfc>
 8049521:	b8 00 00 00 00       	mov    $0x0,%eax
 8049526:	83 c4 4c             	add    $0x4c,%esp
 8049529:	5b                   	pop    %ebx
 804952a:	5e                   	pop    %esi
 804952b:	5f                   	pop    %edi
 804952c:	5d                   	pop    %ebp
 804952d:	c3                   	ret    

0804952e <submitr>:
 804952e:	55                   	push   %ebp
 804952f:	89 e5                	mov    %esp,%ebp
 8049531:	57                   	push   %edi
 8049532:	56                   	push   %esi
 8049533:	53                   	push   %ebx
 8049534:	81 ec 7c a0 00 00    	sub    $0xa07c,%esp
 804953a:	8b 75 08             	mov    0x8(%ebp),%esi
 804953d:	8b 45 10             	mov    0x10(%ebp),%eax
 8049540:	89 85 b0 5f ff ff    	mov    %eax,-0xa050(%ebp)
 8049546:	8b 45 14             	mov    0x14(%ebp),%eax
 8049549:	89 85 ac 5f ff ff    	mov    %eax,-0xa054(%ebp)
 804954f:	8b 45 18             	mov    0x18(%ebp),%eax
 8049552:	89 85 a8 5f ff ff    	mov    %eax,-0xa058(%ebp)
 8049558:	8b 5d 1c             	mov    0x1c(%ebp),%ebx
 804955b:	8b 45 20             	mov    0x20(%ebp),%eax
 804955e:	89 85 a4 5f ff ff    	mov    %eax,-0xa05c(%ebp)
 8049564:	65 a1 14 00 00 00    	mov    %gs:0x14,%eax
 804956a:	89 45 e4             	mov    %eax,-0x1c(%ebp)
 804956d:	31 c0                	xor    %eax,%eax
 804956f:	c7 85 c4 5f ff ff 00 	movl   $0x0,-0xa03c(%ebp)
 8049576:	00 00 00 
 8049579:	c7 44 24 08 00 00 00 	movl   $0x0,0x8(%esp)
 8049580:	00 
 8049581:	c7 44 24 04 01 00 00 	movl   $0x1,0x4(%esp)
 8049588:	00 
 8049589:	c7 04 24 02 00 00 00 	movl   $0x2,(%esp)
 8049590:	e8 0b f3 ff ff       	call   80488a0 <socket@plt>
 8049595:	89 85 b4 5f ff ff    	mov    %eax,-0xa04c(%ebp)
 804959b:	85 c0                	test   %eax,%eax
 804959d:	79 77                	jns    8049616 <submitr+0xe8>
 804959f:	8b 8d a4 5f ff ff    	mov    -0xa05c(%ebp),%ecx
 80495a5:	89 cf                	mov    %ecx,%edi
 80495a7:	be 7c a6 04 08       	mov    $0x804a67c,%esi
 80495ac:	b8 26 00 00 00       	mov    $0x26,%eax
 80495b1:	f6 c1 01             	test   $0x1,%cl
 80495b4:	74 14                	je     80495ca <submitr+0x9c>
 80495b6:	a0 7c a6 04 08       	mov    0x804a67c,%al
 80495bb:	88 01                	mov    %al,(%ecx)
 80495bd:	8d 79 01             	lea    0x1(%ecx),%edi
 80495c0:	be 7d a6 04 08       	mov    $0x804a67d,%esi
 80495c5:	b8 25 00 00 00       	mov    $0x25,%eax
 80495ca:	f7 c7 02 00 00 00    	test   $0x2,%edi
 80495d0:	74 0f                	je     80495e1 <submitr+0xb3>
 80495d2:	66 8b 16             	mov    (%esi),%dx
 80495d5:	66 89 17             	mov    %dx,(%edi)
 80495d8:	83 c7 02             	add    $0x2,%edi
 80495db:	83 c6 02             	add    $0x2,%esi
 80495de:	83 e8 02             	sub    $0x2,%eax
 80495e1:	89 c1                	mov    %eax,%ecx
 80495e3:	c1 e9 02             	shr    $0x2,%ecx
 80495e6:	f3 a5                	rep movsl %ds:(%esi),%es:(%edi)
 80495e8:	ba 00 00 00 00       	mov    $0x0,%edx
 80495ed:	a8 02                	test   $0x2,%al
 80495ef:	74 0b                	je     80495fc <submitr+0xce>
 80495f1:	66 8b 16             	mov    (%esi),%dx
 80495f4:	66 89 17             	mov    %dx,(%edi)
 80495f7:	ba 02 00 00 00       	mov    $0x2,%edx
 80495fc:	a8 01                	test   $0x1,%al
 80495fe:	74 0c                	je     804960c <submitr+0xde>
 8049600:	8a 04 16             	mov    (%esi,%edx,1),%al
 8049603:	88 85 b4 5f ff ff    	mov    %al,-0xa04c(%ebp)
 8049609:	88 04 17             	mov    %al,(%edi,%edx,1)
 804960c:	b8 ff ff ff ff       	mov    $0xffffffff,%eax
 8049611:	e9 29 07 00 00       	jmp    8049d3f <submitr+0x811>
 8049616:	89 34 24             	mov    %esi,(%esp)
 8049619:	e8 a2 f2 ff ff       	call   80488c0 <gethostbyname@plt>
 804961e:	85 c0                	test   %eax,%eax
 8049620:	0f 85 82 00 00 00    	jne    80496a8 <submitr+0x17a>
 8049626:	8b 8d a4 5f ff ff    	mov    -0xa05c(%ebp),%ecx
 804962c:	89 cf                	mov    %ecx,%edi
 804962e:	be a4 a6 04 08       	mov    $0x804a6a4,%esi
 8049633:	b0 2f                	mov    $0x2f,%al
 8049635:	f6 c1 01             	test   $0x1,%cl
 8049638:	74 14                	je     804964e <submitr+0x120>
 804963a:	a0 a4 a6 04 08       	mov    0x804a6a4,%al
 804963f:	88 01                	mov    %al,(%ecx)
 8049641:	8d 79 01             	lea    0x1(%ecx),%edi
 8049644:	be a5 a6 04 08       	mov    $0x804a6a5,%esi
 8049649:	b8 2e 00 00 00       	mov    $0x2e,%eax
 804964e:	f7 c7 02 00 00 00    	test   $0x2,%edi
 8049654:	74 0f                	je     8049665 <submitr+0x137>
 8049656:	66 8b 16             	mov    (%esi),%dx
 8049659:	66 89 17             	mov    %dx,(%edi)
 804965c:	83 c7 02             	add    $0x2,%edi
 804965f:	83 c6 02             	add    $0x2,%esi
 8049662:	83 e8 02             	sub    $0x2,%eax
 8049665:	89 c1                	mov    %eax,%ecx
 8049667:	c1 e9 02             	shr    $0x2,%ecx
 804966a:	f3 a5                	rep movsl %ds:(%esi),%es:(%edi)
 804966c:	ba 00 00 00 00       	mov    $0x0,%edx
 8049671:	a8 02                	test   $0x2,%al
 8049673:	74 0b                	je     8049680 <submitr+0x152>
 8049675:	66 8b 16             	mov    (%esi),%dx
 8049678:	66 89 17             	mov    %dx,(%edi)
 804967b:	ba 02 00 00 00       	mov    $0x2,%edx
 8049680:	a8 01                	test   $0x1,%al
 8049682:	74 0c                	je     8049690 <submitr+0x162>
 8049684:	8a 04 16             	mov    (%esi,%edx,1),%al
 8049687:	88 85 b0 5f ff ff    	mov    %al,-0xa050(%ebp)
 804968d:	88 04 17             	mov    %al,(%edi,%edx,1)
 8049690:	8b 85 b4 5f ff ff    	mov    -0xa04c(%ebp),%eax
 8049696:	89 04 24             	mov    %eax,(%esp)
 8049699:	e8 52 f2 ff ff       	call   80488f0 <close@plt>
 804969e:	b8 ff ff ff ff       	mov    $0xffffffff,%eax
 80496a3:	e9 97 06 00 00       	jmp    8049d3f <submitr+0x811>
 80496a8:	8d b5 c8 5f ff ff    	lea    -0xa038(%ebp),%esi
 80496ae:	c7 85 c8 5f ff ff 00 	movl   $0x0,-0xa038(%ebp)
 80496b5:	00 00 00 
 80496b8:	c7 85 cc 5f ff ff 00 	movl   $0x0,-0xa034(%ebp)
 80496bf:	00 00 00 
 80496c2:	c7 85 d0 5f ff ff 00 	movl   $0x0,-0xa030(%ebp)
 80496c9:	00 00 00 
 80496cc:	c7 85 d4 5f ff ff 00 	movl   $0x0,-0xa02c(%ebp)
 80496d3:	00 00 00 
 80496d6:	66 c7 85 c8 5f ff ff 	movw   $0x2,-0xa038(%ebp)
 80496dd:	02 00 
 80496df:	c7 44 24 0c 0c 00 00 	movl   $0xc,0xc(%esp)
 80496e6:	00 
 80496e7:	8b 50 0c             	mov    0xc(%eax),%edx
 80496ea:	89 54 24 08          	mov    %edx,0x8(%esp)
 80496ee:	8b 40 10             	mov    0x10(%eax),%eax
 80496f1:	8b 00                	mov    (%eax),%eax
 80496f3:	89 44 24 04          	mov    %eax,0x4(%esp)
 80496f7:	8d 85 cc 5f ff ff    	lea    -0xa034(%ebp),%eax
 80496fd:	89 04 24             	mov    %eax,(%esp)
 8049700:	e8 fb f0 ff ff       	call   8048800 <__memmove_chk@plt>
 8049705:	8b 45 0c             	mov    0xc(%ebp),%eax
 8049708:	66 c1 c8 08          	ror    $0x8,%ax
 804970c:	66 89 85 ca 5f ff ff 	mov    %ax,-0xa036(%ebp)
 8049713:	c7 44 24 08 10 00 00 	movl   $0x10,0x8(%esp)
 804971a:	00 
 804971b:	89 74 24 04          	mov    %esi,0x4(%esp)
 804971f:	8b 85 b4 5f ff ff    	mov    -0xa04c(%ebp),%eax
 8049725:	89 04 24             	mov    %eax,(%esp)
 8049728:	e8 b3 f1 ff ff       	call   80488e0 <connect@plt>
 804972d:	85 c0                	test   %eax,%eax
 804972f:	0f 89 85 00 00 00    	jns    80497ba <submitr+0x28c>
 8049735:	8b 8d a4 5f ff ff    	mov    -0xa05c(%ebp),%ecx
 804973b:	89 cf                	mov    %ecx,%edi
 804973d:	be d4 a6 04 08       	mov    $0x804a6d4,%esi
 8049742:	b8 27 00 00 00       	mov    $0x27,%eax
 8049747:	f6 c1 01             	test   $0x1,%cl
 804974a:	74 14                	je     8049760 <submitr+0x232>
 804974c:	a0 d4 a6 04 08       	mov    0x804a6d4,%al
 8049751:	88 01                	mov    %al,(%ecx)
 8049753:	8d 79 01             	lea    0x1(%ecx),%edi
 8049756:	be d5 a6 04 08       	mov    $0x804a6d5,%esi
 804975b:	b8 26 00 00 00       	mov    $0x26,%eax
 8049760:	f7 c7 02 00 00 00    	test   $0x2,%edi
 8049766:	74 0f                	je     8049777 <submitr+0x249>
 8049768:	66 8b 16             	mov    (%esi),%dx
 804976b:	66 89 17             	mov    %dx,(%edi)
 804976e:	83 c7 02             	add    $0x2,%edi
 8049771:	83 c6 02             	add    $0x2,%esi
 8049774:	83 e8 02             	sub    $0x2,%eax
 8049777:	89 c1                	mov    %eax,%ecx
 8049779:	c1 e9 02             	shr    $0x2,%ecx
 804977c:	f3 a5                	rep movsl %ds:(%esi),%es:(%edi)
 804977e:	ba 00 00 00 00       	mov    $0x0,%edx
 8049783:	a8 02                	test   $0x2,%al
 8049785:	74 0b                	je     8049792 <submitr+0x264>
 8049787:	66 8b 16             	mov    (%esi),%dx
 804978a:	66 89 17             	mov    %dx,(%edi)
 804978d:	ba 02 00 00 00       	mov    $0x2,%edx
 8049792:	a8 01                	test   $0x1,%al
 8049794:	74 0c                	je     80497a2 <submitr+0x274>
 8049796:	8a 04 16             	mov    (%esi,%edx,1),%al
 8049799:	88 85 b0 5f ff ff    	mov    %al,-0xa050(%ebp)
 804979f:	88 04 17             	mov    %al,(%edi,%edx,1)
 80497a2:	8b 85 b4 5f ff ff    	mov    -0xa04c(%ebp),%eax
 80497a8:	89 04 24             	mov    %eax,(%esp)
 80497ab:	e8 40 f1 ff ff       	call   80488f0 <close@plt>
 80497b0:	b8 ff ff ff ff       	mov    $0xffffffff,%eax
 80497b5:	e9 85 05 00 00       	jmp    8049d3f <submitr+0x811>
 80497ba:	89 df                	mov    %ebx,%edi
 80497bc:	b0 00                	mov    $0x0,%al
 80497be:	b9 ff ff ff ff       	mov    $0xffffffff,%ecx
 80497c3:	f2 ae                	repnz scas %es:(%edi),%al
 80497c5:	f7 d1                	not    %ecx
 80497c7:	89 ca                	mov    %ecx,%edx
 80497c9:	8b bd b0 5f ff ff    	mov    -0xa050(%ebp),%edi
 80497cf:	b9 ff ff ff ff       	mov    $0xffffffff,%ecx
 80497d4:	f2 ae                	repnz scas %es:(%edi),%al
 80497d6:	89 8d a0 5f ff ff    	mov    %ecx,-0xa060(%ebp)
 80497dc:	8b bd ac 5f ff ff    	mov    -0xa054(%ebp),%edi
 80497e2:	b9 ff ff ff ff       	mov    $0xffffffff,%ecx
 80497e7:	f2 ae                	repnz scas %es:(%edi),%al
 80497e9:	89 ce                	mov    %ecx,%esi
 80497eb:	f7 d6                	not    %esi
 80497ed:	8b bd a8 5f ff ff    	mov    -0xa058(%ebp),%edi
 80497f3:	b9 ff ff ff ff       	mov    $0xffffffff,%ecx
 80497f8:	f2 ae                	repnz scas %es:(%edi),%al
 80497fa:	2b b5 a0 5f ff ff    	sub    -0xa060(%ebp),%esi
 8049800:	29 ce                	sub    %ecx,%esi
 8049802:	8d 44 52 fd          	lea    -0x3(%edx,%edx,2),%eax
 8049806:	8d 44 06 7b          	lea    0x7b(%esi,%eax,1),%eax
 804980a:	3d 00 20 00 00       	cmp    $0x2000,%eax
 804980f:	0f 86 85 00 00 00    	jbe    804989a <submitr+0x36c>
 8049815:	8b 8d a4 5f ff ff    	mov    -0xa05c(%ebp),%ecx
 804981b:	89 cf                	mov    %ecx,%edi
 804981d:	be fc a6 04 08       	mov    $0x804a6fc,%esi
 8049822:	b8 38 00 00 00       	mov    $0x38,%eax
 8049827:	f6 c1 01             	test   $0x1,%cl
 804982a:	74 14                	je     8049840 <submitr+0x312>
 804982c:	a0 fc a6 04 08       	mov    0x804a6fc,%al
 8049831:	88 01                	mov    %al,(%ecx)
 8049833:	8d 79 01             	lea    0x1(%ecx),%edi
 8049836:	be fd a6 04 08       	mov    $0x804a6fd,%esi
 804983b:	b8 37 00 00 00       	mov    $0x37,%eax
 8049840:	f7 c7 02 00 00 00    	test   $0x2,%edi
 8049846:	74 0f                	je     8049857 <submitr+0x329>
 8049848:	66 8b 16             	mov    (%esi),%dx
 804984b:	66 89 17             	mov    %dx,(%edi)
 804984e:	83 c7 02             	add    $0x2,%edi
 8049851:	83 c6 02             	add    $0x2,%esi
 8049854:	83 e8 02             	sub    $0x2,%eax
 8049857:	89 c1                	mov    %eax,%ecx
 8049859:	c1 e9 02             	shr    $0x2,%ecx
 804985c:	f3 a5                	rep movsl %ds:(%esi),%es:(%edi)
 804985e:	ba 00 00 00 00       	mov    $0x0,%edx
 8049863:	a8 02                	test   $0x2,%al
 8049865:	74 0b                	je     8049872 <submitr+0x344>
 8049867:	66 8b 16             	mov    (%esi),%dx
 804986a:	66 89 17             	mov    %dx,(%edi)
 804986d:	ba 02 00 00 00       	mov    $0x2,%edx
 8049872:	a8 01                	test   $0x1,%al
 8049874:	74 0c                	je     8049882 <submitr+0x354>
 8049876:	8a 04 16             	mov    (%esi,%edx,1),%al
 8049879:	88 85 b0 5f ff ff    	mov    %al,-0xa050(%ebp)
 804987f:	88 04 17             	mov    %al,(%edi,%edx,1)
 8049882:	8b 85 b4 5f ff ff    	mov    -0xa04c(%ebp),%eax
 8049888:	89 04 24             	mov    %eax,(%esp)
 804988b:	e8 60 f0 ff ff       	call   80488f0 <close@plt>
 8049890:	b8 ff ff ff ff       	mov    $0xffffffff,%eax
 8049895:	e9 a5 04 00 00       	jmp    8049d3f <submitr+0x811>
 804989a:	8d 95 d8 7f ff ff    	lea    -0x8028(%ebp),%edx
 80498a0:	b9 00 08 00 00       	mov    $0x800,%ecx
 80498a5:	b8 00 00 00 00       	mov    $0x0,%eax
 80498aa:	89 d7                	mov    %edx,%edi
 80498ac:	f3 ab                	rep stos %eax,%es:(%edi)
 80498ae:	89 df                	mov    %ebx,%edi
 80498b0:	b9 ff ff ff ff       	mov    $0xffffffff,%ecx
 80498b5:	f2 ae                	repnz scas %es:(%edi),%al
 80498b7:	f7 d1                	not    %ecx
 80498b9:	49                   	dec    %ecx
 80498ba:	89 ce                	mov    %ecx,%esi
 80498bc:	0f 84 92 04 00 00    	je     8049d54 <submitr+0x826>
 80498c2:	89 d7                	mov    %edx,%edi
 80498c4:	8a 03                	mov    (%ebx),%al
 80498c6:	3c 2a                	cmp    $0x2a,%al
 80498c8:	74 21                	je     80498eb <submitr+0x3bd>
 80498ca:	8d 50 d3             	lea    -0x2d(%eax),%edx
 80498cd:	80 fa 01             	cmp    $0x1,%dl
 80498d0:	76 19                	jbe    80498eb <submitr+0x3bd>
 80498d2:	3c 5f                	cmp    $0x5f,%al
 80498d4:	74 15                	je     80498eb <submitr+0x3bd>
 80498d6:	8d 50 d0             	lea    -0x30(%eax),%edx
 80498d9:	80 fa 09             	cmp    $0x9,%dl
 80498dc:	76 0d                	jbe    80498eb <submitr+0x3bd>
 80498de:	88 c2                	mov    %al,%dl
 80498e0:	83 e2 df             	and    $0xffffffdf,%edx
 80498e3:	83 ea 41             	sub    $0x41,%edx
 80498e6:	80 fa 19             	cmp    $0x19,%dl
 80498e9:	77 07                	ja     80498f2 <submitr+0x3c4>
 80498eb:	8d 57 01             	lea    0x1(%edi),%edx
 80498ee:	88 07                	mov    %al,(%edi)
 80498f0:	eb 68                	jmp    804995a <submitr+0x42c>
 80498f2:	3c 20                	cmp    $0x20,%al
 80498f4:	75 08                	jne    80498fe <submitr+0x3d0>
 80498f6:	8d 57 01             	lea    0x1(%edi),%edx
 80498f9:	c6 07 2b             	movb   $0x2b,(%edi)
 80498fc:	eb 5c                	jmp    804995a <submitr+0x42c>
 80498fe:	8d 50 e0             	lea    -0x20(%eax),%edx
 8049901:	80 fa 5f             	cmp    $0x5f,%dl
 8049904:	76 08                	jbe    804990e <submitr+0x3e0>
 8049906:	3c 09                	cmp    $0x9,%al
 8049908:	0f 85 bf 04 00 00    	jne    8049dcd <submitr+0x89f>
 804990e:	25 ff 00 00 00       	and    $0xff,%eax
 8049913:	89 44 24 10          	mov    %eax,0x10(%esp)
 8049917:	c7 44 24 0c ec a8 04 	movl   $0x804a8ec,0xc(%esp)
 804991e:	08 
 804991f:	c7 44 24 08 08 00 00 	movl   $0x8,0x8(%esp)
 8049926:	00 
 8049927:	c7 44 24 04 01 00 00 	movl   $0x1,0x4(%esp)
 804992e:	00 
 804992f:	8d 85 d8 df ff ff    	lea    -0x2028(%ebp),%eax
 8049935:	89 04 24             	mov    %eax,(%esp)
 8049938:	e8 d3 ef ff ff       	call   8048910 <__sprintf_chk@plt>
 804993d:	8a 85 d8 df ff ff    	mov    -0x2028(%ebp),%al
 8049943:	88 07                	mov    %al,(%edi)
 8049945:	8a 85 d9 df ff ff    	mov    -0x2027(%ebp),%al
 804994b:	88 47 01             	mov    %al,0x1(%edi)
 804994e:	8d 57 03             	lea    0x3(%edi),%edx
 8049951:	8a 85 da df ff ff    	mov    -0x2026(%ebp),%al
 8049957:	88 47 02             	mov    %al,0x2(%edi)
 804995a:	43                   	inc    %ebx
 804995b:	4e                   	dec    %esi
 804995c:	0f 84 f2 03 00 00    	je     8049d54 <submitr+0x826>
 8049962:	89 d7                	mov    %edx,%edi
 8049964:	e9 5b ff ff ff       	jmp    80498c4 <submitr+0x396>
 8049969:	89 5c 24 08          	mov    %ebx,0x8(%esp)
 804996d:	89 74 24 04          	mov    %esi,0x4(%esp)
 8049971:	89 3c 24             	mov    %edi,(%esp)
 8049974:	e8 d7 ee ff ff       	call   8048850 <write@plt>
 8049979:	85 c0                	test   %eax,%eax
 804997b:	7f 0f                	jg     804998c <submitr+0x45e>
 804997d:	e8 fe ee ff ff       	call   8048880 <__errno_location@plt>
 8049982:	83 38 04             	cmpl   $0x4,(%eax)
 8049985:	75 19                	jne    80499a0 <submitr+0x472>
 8049987:	b8 00 00 00 00       	mov    $0x0,%eax
 804998c:	01 c6                	add    %eax,%esi
 804998e:	29 c3                	sub    %eax,%ebx
 8049990:	75 d7                	jne    8049969 <submitr+0x43b>
 8049992:	8b bd b0 5f ff ff    	mov    -0xa050(%ebp),%edi
 8049998:	85 ff                	test   %edi,%edi
 804999a:	0f 89 85 00 00 00    	jns    8049a25 <submitr+0x4f7>
 80499a0:	8b 8d a4 5f ff ff    	mov    -0xa05c(%ebp),%ecx
 80499a6:	89 cf                	mov    %ecx,%edi
 80499a8:	be 34 a7 04 08       	mov    $0x804a734,%esi
 80499ad:	b8 2c 00 00 00       	mov    $0x2c,%eax
 80499b2:	f6 c1 01             	test   $0x1,%cl
 80499b5:	74 14                	je     80499cb <submitr+0x49d>
 80499b7:	a0 34 a7 04 08       	mov    0x804a734,%al
 80499bc:	88 01                	mov    %al,(%ecx)
 80499be:	8d 79 01             	lea    0x1(%ecx),%edi
 80499c1:	be 35 a7 04 08       	mov    $0x804a735,%esi
 80499c6:	b8 2b 00 00 00       	mov    $0x2b,%eax
 80499cb:	f7 c7 02 00 00 00    	test   $0x2,%edi
 80499d1:	74 0f                	je     80499e2 <submitr+0x4b4>
 80499d3:	66 8b 16             	mov    (%esi),%dx
 80499d6:	66 89 17             	mov    %dx,(%edi)
 80499d9:	83 c7 02             	add    $0x2,%edi
 80499dc:	83 c6 02             	add    $0x2,%esi
 80499df:	83 e8 02             	sub    $0x2,%eax
 80499e2:	89 c1                	mov    %eax,%ecx
 80499e4:	c1 e9 02             	shr    $0x2,%ecx
 80499e7:	f3 a5                	rep movsl %ds:(%esi),%es:(%edi)
 80499e9:	ba 00 00 00 00       	mov    $0x0,%edx
 80499ee:	a8 02                	test   $0x2,%al
 80499f0:	74 0b                	je     80499fd <submitr+0x4cf>
 80499f2:	66 8b 16             	mov    (%esi),%dx
 80499f5:	66 89 17             	mov    %dx,(%edi)
 80499f8:	ba 02 00 00 00       	mov    $0x2,%edx
 80499fd:	a8 01                	test   $0x1,%al
 80499ff:	74 0c                	je     8049a0d <submitr+0x4df>
 8049a01:	8a 04 16             	mov    (%esi,%edx,1),%al
 8049a04:	88 85 b0 5f ff ff    	mov    %al,-0xa050(%ebp)
 8049a0a:	88 04 17             	mov    %al,(%edi,%edx,1)
 8049a0d:	8b 85 b4 5f ff ff    	mov    -0xa04c(%ebp),%eax
 8049a13:	89 04 24             	mov    %eax,(%esp)
 8049a16:	e8 d5 ee ff ff       	call   80488f0 <close@plt>
 8049a1b:	b8 ff ff ff ff       	mov    $0xffffffff,%eax
 8049a20:	e9 1a 03 00 00       	jmp    8049d3f <submitr+0x811>
 8049a25:	8b 85 b4 5f ff ff    	mov    -0xa04c(%ebp),%eax
 8049a2b:	89 85 d8 df ff ff    	mov    %eax,-0x2028(%ebp)
 8049a31:	c7 85 dc df ff ff 00 	movl   $0x0,-0x2024(%ebp)
 8049a38:	00 00 00 
 8049a3b:	8d 85 e4 df ff ff    	lea    -0x201c(%ebp),%eax
 8049a41:	89 85 e0 df ff ff    	mov    %eax,-0x2020(%ebp)
 8049a47:	b9 00 20 00 00       	mov    $0x2000,%ecx
 8049a4c:	8d 95 d8 5f ff ff    	lea    -0xa028(%ebp),%edx
 8049a52:	8d 85 d8 df ff ff    	lea    -0x2028(%ebp),%eax
 8049a58:	e8 cd f9 ff ff       	call   804942a <rio_readlineb>
 8049a5d:	85 c0                	test   %eax,%eax
 8049a5f:	0f 8f 85 00 00 00    	jg     8049aea <submitr+0x5bc>
 8049a65:	8b 8d a4 5f ff ff    	mov    -0xa05c(%ebp),%ecx
 8049a6b:	89 cf                	mov    %ecx,%edi
 8049a6d:	be 60 a7 04 08       	mov    $0x804a760,%esi
 8049a72:	b8 36 00 00 00       	mov    $0x36,%eax
 8049a77:	f6 c1 01             	test   $0x1,%cl
 8049a7a:	74 14                	je     8049a90 <submitr+0x562>
 8049a7c:	a0 60 a7 04 08       	mov    0x804a760,%al
 8049a81:	88 01                	mov    %al,(%ecx)
 8049a83:	8d 79 01             	lea    0x1(%ecx),%edi
 8049a86:	be 61 a7 04 08       	mov    $0x804a761,%esi
 8049a8b:	b8 35 00 00 00       	mov    $0x35,%eax
 8049a90:	f7 c7 02 00 00 00    	test   $0x2,%edi
 8049a96:	74 0f                	je     8049aa7 <submitr+0x579>
 8049a98:	66 8b 16             	mov    (%esi),%dx
 8049a9b:	66 89 17             	mov    %dx,(%edi)
 8049a9e:	83 c7 02             	add    $0x2,%edi
 8049aa1:	83 c6 02             	add    $0x2,%esi
 8049aa4:	83 e8 02             	sub    $0x2,%eax
 8049aa7:	89 c1                	mov    %eax,%ecx
 8049aa9:	c1 e9 02             	shr    $0x2,%ecx
 8049aac:	f3 a5                	rep movsl %ds:(%esi),%es:(%edi)
 8049aae:	ba 00 00 00 00       	mov    $0x0,%edx
 8049ab3:	a8 02                	test   $0x2,%al
 8049ab5:	74 0b                	je     8049ac2 <submitr+0x594>
 8049ab7:	66 8b 16             	mov    (%esi),%dx
 8049aba:	66 89 17             	mov    %dx,(%edi)
 8049abd:	ba 02 00 00 00       	mov    $0x2,%edx
 8049ac2:	a8 01                	test   $0x1,%al
 8049ac4:	74 0c                	je     8049ad2 <submitr+0x5a4>
 8049ac6:	8a 04 16             	mov    (%esi,%edx,1),%al
 8049ac9:	88 85 b0 5f ff ff    	mov    %al,-0xa050(%ebp)
 8049acf:	88 04 17             	mov    %al,(%edi,%edx,1)
 8049ad2:	8b 85 b4 5f ff ff    	mov    -0xa04c(%ebp),%eax
 8049ad8:	89 04 24             	mov    %eax,(%esp)
 8049adb:	e8 10 ee ff ff       	call   80488f0 <close@plt>
 8049ae0:	b8 ff ff ff ff       	mov    $0xffffffff,%eax
 8049ae5:	e9 55 02 00 00       	jmp    8049d3f <submitr+0x811>
 8049aea:	8d 85 d8 bf ff ff    	lea    -0x4028(%ebp),%eax
 8049af0:	89 44 24 10          	mov    %eax,0x10(%esp)
 8049af4:	8d 85 c4 5f ff ff    	lea    -0xa03c(%ebp),%eax
 8049afa:	89 44 24 0c          	mov    %eax,0xc(%esp)
 8049afe:	8d 85 d8 9f ff ff    	lea    -0x6028(%ebp),%eax
 8049b04:	89 44 24 08          	mov    %eax,0x8(%esp)
 8049b08:	c7 44 24 04 f3 a8 04 	movl   $0x804a8f3,0x4(%esp)
 8049b0f:	08 
 8049b10:	8d 85 d8 5f ff ff    	lea    -0xa028(%ebp),%eax
 8049b16:	89 04 24             	mov    %eax,(%esp)
 8049b19:	e8 42 ed ff ff       	call   8048860 <__isoc99_sscanf@plt>
 8049b1e:	8b 85 c4 5f ff ff    	mov    -0xa03c(%ebp),%eax
 8049b24:	3d c8 00 00 00       	cmp    $0xc8,%eax
 8049b29:	0f 84 ef 00 00 00    	je     8049c1e <submitr+0x6f0>
 8049b2f:	8d 95 d8 bf ff ff    	lea    -0x4028(%ebp),%edx
 8049b35:	89 54 24 14          	mov    %edx,0x14(%esp)
 8049b39:	89 44 24 10          	mov    %eax,0x10(%esp)
 8049b3d:	c7 44 24 0c 98 a7 04 	movl   $0x804a798,0xc(%esp)
 8049b44:	08 
 8049b45:	c7 44 24 08 ff ff ff 	movl   $0xffffffff,0x8(%esp)
 8049b4c:	ff 
 8049b4d:	c7 44 24 04 01 00 00 	movl   $0x1,0x4(%esp)
 8049b54:	00 
 8049b55:	8b 85 a4 5f ff ff    	mov    -0xa05c(%ebp),%eax
 8049b5b:	89 04 24             	mov    %eax,(%esp)
 8049b5e:	e8 ad ed ff ff       	call   8048910 <__sprintf_chk@plt>
 8049b63:	8b 85 b4 5f ff ff    	mov    -0xa04c(%ebp),%eax
 8049b69:	89 04 24             	mov    %eax,(%esp)
 8049b6c:	e8 7f ed ff ff       	call   80488f0 <close@plt>
 8049b71:	b8 ff ff ff ff       	mov    $0xffffffff,%eax
 8049b76:	e9 c4 01 00 00       	jmp    8049d3f <submitr+0x811>
 8049b7b:	b9 00 20 00 00       	mov    $0x2000,%ecx
 8049b80:	8d 95 d8 5f ff ff    	lea    -0xa028(%ebp),%edx
 8049b86:	8d 85 d8 df ff ff    	lea    -0x2028(%ebp),%eax
 8049b8c:	e8 99 f8 ff ff       	call   804942a <rio_readlineb>
 8049b91:	85 c0                	test   %eax,%eax
 8049b93:	0f 8f 85 00 00 00    	jg     8049c1e <submitr+0x6f0>
 8049b99:	8b 8d a4 5f ff ff    	mov    -0xa05c(%ebp),%ecx
 8049b9f:	89 cf                	mov    %ecx,%edi
 8049ba1:	be c8 a7 04 08       	mov    $0x804a7c8,%esi
 8049ba6:	b8 31 00 00 00       	mov    $0x31,%eax
 8049bab:	f6 c1 01             	test   $0x1,%cl
 8049bae:	74 14                	je     8049bc4 <submitr+0x696>
 8049bb0:	a0 c8 a7 04 08       	mov    0x804a7c8,%al
 8049bb5:	88 01                	mov    %al,(%ecx)
 8049bb7:	8d 79 01             	lea    0x1(%ecx),%edi
 8049bba:	be c9 a7 04 08       	mov    $0x804a7c9,%esi
 8049bbf:	b8 30 00 00 00       	mov    $0x30,%eax
 8049bc4:	f7 c7 02 00 00 00    	test   $0x2,%edi
 8049bca:	74 0f                	je     8049bdb <submitr+0x6ad>
 8049bcc:	66 8b 16             	mov    (%esi),%dx
 8049bcf:	66 89 17             	mov    %dx,(%edi)
 8049bd2:	83 c7 02             	add    $0x2,%edi
 8049bd5:	83 c6 02             	add    $0x2,%esi
 8049bd8:	83 e8 02             	sub    $0x2,%eax
 8049bdb:	89 c1                	mov    %eax,%ecx
 8049bdd:	c1 e9 02             	shr    $0x2,%ecx
 8049be0:	f3 a5                	rep movsl %ds:(%esi),%es:(%edi)
 8049be2:	ba 00 00 00 00       	mov    $0x0,%edx
 8049be7:	a8 02                	test   $0x2,%al
 8049be9:	74 0b                	je     8049bf6 <submitr+0x6c8>
 8049beb:	66 8b 16             	mov    (%esi),%dx
 8049bee:	66 89 17             	mov    %dx,(%edi)
 8049bf1:	ba 02 00 00 00       	mov    $0x2,%edx
 8049bf6:	a8 01                	test   $0x1,%al
 8049bf8:	74 0c                	je     8049c06 <submitr+0x6d8>
 8049bfa:	8a 04 16             	mov    (%esi,%edx,1),%al
 8049bfd:	88 85 b0 5f ff ff    	mov    %al,-0xa050(%ebp)
 8049c03:	88 04 17             	mov    %al,(%edi,%edx,1)
 8049c06:	8b 85 b4 5f ff ff    	mov    -0xa04c(%ebp),%eax
 8049c0c:	89 04 24             	mov    %eax,(%esp)
 8049c0f:	e8 dc ec ff ff       	call   80488f0 <close@plt>
 8049c14:	b8 ff ff ff ff       	mov    $0xffffffff,%eax
 8049c19:	e9 21 01 00 00       	jmp    8049d3f <submitr+0x811>
 8049c1e:	80 bd d8 5f ff ff 0d 	cmpb   $0xd,-0xa028(%ebp)
 8049c25:	0f 85 50 ff ff ff    	jne    8049b7b <submitr+0x64d>
 8049c2b:	80 bd d9 5f ff ff 0a 	cmpb   $0xa,-0xa027(%ebp)
 8049c32:	0f 85 43 ff ff ff    	jne    8049b7b <submitr+0x64d>
 8049c38:	80 bd da 5f ff ff 00 	cmpb   $0x0,-0xa026(%ebp)
 8049c3f:	0f 85 36 ff ff ff    	jne    8049b7b <submitr+0x64d>
 8049c45:	b9 00 20 00 00       	mov    $0x2000,%ecx
 8049c4a:	8d 95 d8 5f ff ff    	lea    -0xa028(%ebp),%edx
 8049c50:	8d 85 d8 df ff ff    	lea    -0x2028(%ebp),%eax
 8049c56:	e8 cf f7 ff ff       	call   804942a <rio_readlineb>
 8049c5b:	85 c0                	test   %eax,%eax
 8049c5d:	0f 8f 82 00 00 00    	jg     8049ce5 <submitr+0x7b7>
 8049c63:	8b 8d a4 5f ff ff    	mov    -0xa05c(%ebp),%ecx
 8049c69:	89 cf                	mov    %ecx,%edi
 8049c6b:	be fc a7 04 08       	mov    $0x804a7fc,%esi
 8049c70:	b8 38 00 00 00       	mov    $0x38,%eax
 8049c75:	f6 c1 01             	test   $0x1,%cl
 8049c78:	74 14                	je     8049c8e <submitr+0x760>
 8049c7a:	a0 fc a7 04 08       	mov    0x804a7fc,%al
 8049c7f:	88 01                	mov    %al,(%ecx)
 8049c81:	8d 79 01             	lea    0x1(%ecx),%edi
 8049c84:	be fd a7 04 08       	mov    $0x804a7fd,%esi
 8049c89:	b8 37 00 00 00       	mov    $0x37,%eax
 8049c8e:	f7 c7 02 00 00 00    	test   $0x2,%edi
 8049c94:	74 0f                	je     8049ca5 <submitr+0x777>
 8049c96:	66 8b 16             	mov    (%esi),%dx
 8049c99:	66 89 17             	mov    %dx,(%edi)
 8049c9c:	83 c7 02             	add    $0x2,%edi
 8049c9f:	83 c6 02             	add    $0x2,%esi
 8049ca2:	83 e8 02             	sub    $0x2,%eax
 8049ca5:	89 c1                	mov    %eax,%ecx
 8049ca7:	c1 e9 02             	shr    $0x2,%ecx
 8049caa:	f3 a5                	rep movsl %ds:(%esi),%es:(%edi)
 8049cac:	ba 00 00 00 00       	mov    $0x0,%edx
 8049cb1:	a8 02                	test   $0x2,%al
 8049cb3:	74 0b                	je     8049cc0 <submitr+0x792>
 8049cb5:	66 8b 16             	mov    (%esi),%dx
 8049cb8:	66 89 17             	mov    %dx,(%edi)
 8049cbb:	ba 02 00 00 00       	mov    $0x2,%edx
 8049cc0:	a8 01                	test   $0x1,%al
 8049cc2:	74 0c                	je     8049cd0 <submitr+0x7a2>
 8049cc4:	8a 04 16             	mov    (%esi,%edx,1),%al
 8049cc7:	88 85 b0 5f ff ff    	mov    %al,-0xa050(%ebp)
 8049ccd:	88 04 17             	mov    %al,(%edi,%edx,1)
 8049cd0:	8b 85 b4 5f ff ff    	mov    -0xa04c(%ebp),%eax
 8049cd6:	89 04 24             	mov    %eax,(%esp)
 8049cd9:	e8 12 ec ff ff       	call   80488f0 <close@plt>
 8049cde:	b8 ff ff ff ff       	mov    $0xffffffff,%eax
 8049ce3:	eb 5a                	jmp    8049d3f <submitr+0x811>
 8049ce5:	8d 85 d8 5f ff ff    	lea    -0xa028(%ebp),%eax
 8049ceb:	89 44 24 04          	mov    %eax,0x4(%esp)
 8049cef:	8b b5 a4 5f ff ff    	mov    -0xa05c(%ebp),%esi
 8049cf5:	89 34 24             	mov    %esi,(%esp)
 8049cf8:	e8 d3 ea ff ff       	call   80487d0 <strcpy@plt>
 8049cfd:	8b 85 b4 5f ff ff    	mov    -0xa04c(%ebp),%eax
 8049d03:	89 04 24             	mov    %eax,(%esp)
 8049d06:	e8 e5 eb ff ff       	call   80488f0 <close@plt>
 8049d0b:	31 c0                	xor    %eax,%eax
 8049d0d:	8a 06                	mov    (%esi),%al
 8049d0f:	ba 4f 00 00 00       	mov    $0x4f,%edx
 8049d14:	29 c2                	sub    %eax,%edx
 8049d16:	75 1b                	jne    8049d33 <submitr+0x805>
 8049d18:	8b 8d a4 5f ff ff    	mov    -0xa05c(%ebp),%ecx
 8049d1e:	31 c0                	xor    %eax,%eax
 8049d20:	8a 41 01             	mov    0x1(%ecx),%al
 8049d23:	ba 4b 00 00 00       	mov    $0x4b,%edx
 8049d28:	29 c2                	sub    %eax,%edx
 8049d2a:	75 07                	jne    8049d33 <submitr+0x805>
 8049d2c:	31 d2                	xor    %edx,%edx
 8049d2e:	8a 51 02             	mov    0x2(%ecx),%dl
 8049d31:	f7 da                	neg    %edx
 8049d33:	85 d2                	test   %edx,%edx
 8049d35:	0f 95 c0             	setne  %al
 8049d38:	25 ff 00 00 00       	and    $0xff,%eax
 8049d3d:	f7 d8                	neg    %eax
 8049d3f:	8b 4d e4             	mov    -0x1c(%ebp),%ecx
 8049d42:	65 33 0d 14 00 00 00 	xor    %gs:0x14,%ecx
 8049d49:	0f 84 08 01 00 00    	je     8049e57 <submitr+0x929>
 8049d4f:	e9 fe 00 00 00       	jmp    8049e52 <submitr+0x924>
 8049d54:	8d 85 d8 7f ff ff    	lea    -0x8028(%ebp),%eax
 8049d5a:	89 44 24 1c          	mov    %eax,0x1c(%esp)
 8049d5e:	8b 85 a8 5f ff ff    	mov    -0xa058(%ebp),%eax
 8049d64:	89 44 24 18          	mov    %eax,0x18(%esp)
 8049d68:	8b 85 ac 5f ff ff    	mov    -0xa054(%ebp),%eax
 8049d6e:	89 44 24 14          	mov    %eax,0x14(%esp)
 8049d72:	8b 85 b0 5f ff ff    	mov    -0xa050(%ebp),%eax
 8049d78:	89 44 24 10          	mov    %eax,0x10(%esp)
 8049d7c:	c7 44 24 0c 34 a8 04 	movl   $0x804a834,0xc(%esp)
 8049d83:	08 
 8049d84:	c7 44 24 08 00 20 00 	movl   $0x2000,0x8(%esp)
 8049d8b:	00 
 8049d8c:	c7 44 24 04 01 00 00 	movl   $0x1,0x4(%esp)
 8049d93:	00 
 8049d94:	8d bd d8 5f ff ff    	lea    -0xa028(%ebp),%edi
 8049d9a:	89 3c 24             	mov    %edi,(%esp)
 8049d9d:	e8 6e eb ff ff       	call   8048910 <__sprintf_chk@plt>
 8049da2:	b0 00                	mov    $0x0,%al
 8049da4:	b9 ff ff ff ff       	mov    $0xffffffff,%ecx
 8049da9:	f2 ae                	repnz scas %es:(%edi),%al
 8049dab:	f7 d1                	not    %ecx
 8049dad:	49                   	dec    %ecx
 8049dae:	0f 84 71 fc ff ff    	je     8049a25 <submitr+0x4f7>
 8049db4:	89 cb                	mov    %ecx,%ebx
 8049db6:	8d b5 d8 5f ff ff    	lea    -0xa028(%ebp),%esi
 8049dbc:	89 8d b0 5f ff ff    	mov    %ecx,-0xa050(%ebp)
 8049dc2:	8b bd b4 5f ff ff    	mov    -0xa04c(%ebp),%edi
 8049dc8:	e9 9c fb ff ff       	jmp    8049969 <submitr+0x43b>
 8049dcd:	8b 8d a4 5f ff ff    	mov    -0xa05c(%ebp),%ecx
 8049dd3:	89 cf                	mov    %ecx,%edi
 8049dd5:	be 80 a8 04 08       	mov    $0x804a880,%esi
 8049dda:	b8 43 00 00 00       	mov    $0x43,%eax
 8049ddf:	f6 c1 01             	test   $0x1,%cl
 8049de2:	74 14                	je     8049df8 <submitr+0x8ca>
 8049de4:	a0 80 a8 04 08       	mov    0x804a880,%al
 8049de9:	88 01                	mov    %al,(%ecx)
 8049deb:	8d 79 01             	lea    0x1(%ecx),%edi
 8049dee:	be 81 a8 04 08       	mov    $0x804a881,%esi
 8049df3:	b8 42 00 00 00       	mov    $0x42,%eax
 8049df8:	f7 c7 02 00 00 00    	test   $0x2,%edi
 8049dfe:	74 0f                	je     8049e0f <submitr+0x8e1>
 8049e00:	66 8b 16             	mov    (%esi),%dx
 8049e03:	66 89 17             	mov    %dx,(%edi)
 8049e06:	83 c7 02             	add    $0x2,%edi
 8049e09:	83 c6 02             	add    $0x2,%esi
 8049e0c:	83 e8 02             	sub    $0x2,%eax
 8049e0f:	89 c1                	mov    %eax,%ecx
 8049e11:	c1 e9 02             	shr    $0x2,%ecx
 8049e14:	f3 a5                	rep movsl %ds:(%esi),%es:(%edi)
 8049e16:	ba 00 00 00 00       	mov    $0x0,%edx
 8049e1b:	a8 02                	test   $0x2,%al
 8049e1d:	74 0b                	je     8049e2a <submitr+0x8fc>
 8049e1f:	66 8b 16             	mov    (%esi),%dx
 8049e22:	66 89 17             	mov    %dx,(%edi)
 8049e25:	ba 02 00 00 00       	mov    $0x2,%edx
 8049e2a:	a8 01                	test   $0x1,%al
 8049e2c:	74 0c                	je     8049e3a <submitr+0x90c>
 8049e2e:	8a 04 16             	mov    (%esi,%edx,1),%al
 8049e31:	88 85 b0 5f ff ff    	mov    %al,-0xa050(%ebp)
 8049e37:	88 04 17             	mov    %al,(%edi,%edx,1)
 8049e3a:	8b 85 b4 5f ff ff    	mov    -0xa04c(%ebp),%eax
 8049e40:	89 04 24             	mov    %eax,(%esp)
 8049e43:	e8 a8 ea ff ff       	call   80488f0 <close@plt>
 8049e48:	b8 ff ff ff ff       	mov    $0xffffffff,%eax
 8049e4d:	e9 ed fe ff ff       	jmp    8049d3f <submitr+0x811>
 8049e52:	e8 69 e9 ff ff       	call   80487c0 <__stack_chk_fail@plt>
 8049e57:	81 c4 7c a0 00 00    	add    $0xa07c,%esp
 8049e5d:	5b                   	pop    %ebx
 8049e5e:	5e                   	pop    %esi
 8049e5f:	5f                   	pop    %edi
 8049e60:	5d                   	pop    %ebp
 8049e61:	c3                   	ret    

08049e62 <init_timeout>:
 8049e62:	55                   	push   %ebp
 8049e63:	89 e5                	mov    %esp,%ebp
 8049e65:	53                   	push   %ebx
 8049e66:	83 ec 14             	sub    $0x14,%esp
 8049e69:	8b 5d 08             	mov    0x8(%ebp),%ebx
 8049e6c:	85 db                	test   %ebx,%ebx
 8049e6e:	74 25                	je     8049e95 <init_timeout+0x33>
 8049e70:	c7 44 24 04 f3 93 04 	movl   $0x80493f3,0x4(%esp)
 8049e77:	08 
 8049e78:	c7 04 24 0e 00 00 00 	movl   $0xe,(%esp)
 8049e7f:	e8 0c e9 ff ff       	call   8048790 <signal@plt>
 8049e84:	89 d8                	mov    %ebx,%eax
 8049e86:	f7 d0                	not    %eax
 8049e88:	c1 f8 1f             	sar    $0x1f,%eax
 8049e8b:	21 c3                	and    %eax,%ebx
 8049e8d:	89 1c 24             	mov    %ebx,(%esp)
 8049e90:	e8 1b e9 ff ff       	call   80487b0 <alarm@plt>
 8049e95:	83 c4 14             	add    $0x14,%esp
 8049e98:	5b                   	pop    %ebx
 8049e99:	5d                   	pop    %ebp
 8049e9a:	c3                   	ret    

08049e9b <init_driver>:
 8049e9b:	55                   	push   %ebp
 8049e9c:	89 e5                	mov    %esp,%ebp
 8049e9e:	57                   	push   %edi
 8049e9f:	56                   	push   %esi
 8049ea0:	53                   	push   %ebx
 8049ea1:	83 ec 4c             	sub    $0x4c,%esp
 8049ea4:	8b 75 08             	mov    0x8(%ebp),%esi
 8049ea7:	65 a1 14 00 00 00    	mov    %gs:0x14,%eax
 8049ead:	89 45 e4             	mov    %eax,-0x1c(%ebp)
 8049eb0:	31 c0                	xor    %eax,%eax
 8049eb2:	c7 44 24 04 01 00 00 	movl   $0x1,0x4(%esp)
 8049eb9:	00 
 8049eba:	c7 04 24 0d 00 00 00 	movl   $0xd,(%esp)
 8049ec1:	e8 ca e8 ff ff       	call   8048790 <signal@plt>
 8049ec6:	c7 44 24 04 01 00 00 	movl   $0x1,0x4(%esp)
 8049ecd:	00 
 8049ece:	c7 04 24 1d 00 00 00 	movl   $0x1d,(%esp)
 8049ed5:	e8 b6 e8 ff ff       	call   8048790 <signal@plt>
 8049eda:	c7 44 24 04 01 00 00 	movl   $0x1,0x4(%esp)
 8049ee1:	00 
 8049ee2:	c7 04 24 1d 00 00 00 	movl   $0x1d,(%esp)
 8049ee9:	e8 a2 e8 ff ff       	call   8048790 <signal@plt>
 8049eee:	c7 44 24 08 00 00 00 	movl   $0x0,0x8(%esp)
 8049ef5:	00 
 8049ef6:	c7 44 24 04 01 00 00 	movl   $0x1,0x4(%esp)
 8049efd:	00 
 8049efe:	c7 04 24 02 00 00 00 	movl   $0x2,(%esp)
 8049f05:	e8 96 e9 ff ff       	call   80488a0 <socket@plt>
 8049f0a:	89 c3                	mov    %eax,%ebx
 8049f0c:	85 c0                	test   %eax,%eax
 8049f0e:	79 70                	jns    8049f80 <init_driver+0xe5>
 8049f10:	89 f7                	mov    %esi,%edi
 8049f12:	ba 7c a6 04 08       	mov    $0x804a67c,%edx
 8049f17:	b8 26 00 00 00       	mov    $0x26,%eax
 8049f1c:	f7 c6 01 00 00 00    	test   $0x1,%esi
 8049f22:	74 14                	je     8049f38 <init_driver+0x9d>
 8049f24:	a0 7c a6 04 08       	mov    0x804a67c,%al
 8049f29:	88 06                	mov    %al,(%esi)
 8049f2b:	8d 7e 01             	lea    0x1(%esi),%edi
 8049f2e:	ba 7d a6 04 08       	mov    $0x804a67d,%edx
 8049f33:	b8 25 00 00 00       	mov    $0x25,%eax
 8049f38:	f7 c7 02 00 00 00    	test   $0x2,%edi
 8049f3e:	74 0f                	je     8049f4f <init_driver+0xb4>
 8049f40:	66 8b 0a             	mov    (%edx),%cx
 8049f43:	66 89 0f             	mov    %cx,(%edi)
 8049f46:	83 c7 02             	add    $0x2,%edi
 8049f49:	83 c2 02             	add    $0x2,%edx
 8049f4c:	83 e8 02             	sub    $0x2,%eax
 8049f4f:	89 c1                	mov    %eax,%ecx
 8049f51:	c1 e9 02             	shr    $0x2,%ecx
 8049f54:	89 d6                	mov    %edx,%esi
 8049f56:	f3 a5                	rep movsl %ds:(%esi),%es:(%edi)
 8049f58:	89 f2                	mov    %esi,%edx
 8049f5a:	a8 02                	test   $0x2,%al
 8049f5c:	74 0b                	je     8049f69 <init_driver+0xce>
 8049f5e:	66 8b 0e             	mov    (%esi),%cx
 8049f61:	66 89 0f             	mov    %cx,(%edi)
 8049f64:	b9 02 00 00 00       	mov    $0x2,%ecx
 8049f69:	a8 01                	test   $0x1,%al
 8049f6b:	74 09                	je     8049f76 <init_driver+0xdb>
 8049f6d:	8a 04 0a             	mov    (%edx,%ecx,1),%al
 8049f70:	88 45 c7             	mov    %al,-0x39(%ebp)
 8049f73:	88 04 0f             	mov    %al,(%edi,%ecx,1)
 8049f76:	b8 ff ff ff ff       	mov    $0xffffffff,%eax
 8049f7b:	e9 3a 01 00 00       	jmp    804a0ba <init_driver+0x21f>
 8049f80:	c7 04 24 04 a9 04 08 	movl   $0x804a904,(%esp)
 8049f87:	e8 34 e9 ff ff       	call   80488c0 <gethostbyname@plt>
 8049f8c:	85 c0                	test   %eax,%eax
 8049f8e:	75 77                	jne    804a007 <init_driver+0x16c>
 8049f90:	89 f7                	mov    %esi,%edi
 8049f92:	b8 a4 a6 04 08       	mov    $0x804a6a4,%eax
 8049f97:	ba 2f 00 00 00       	mov    $0x2f,%edx
 8049f9c:	f7 c6 01 00 00 00    	test   $0x1,%esi
 8049fa2:	74 11                	je     8049fb5 <init_driver+0x11a>
 8049fa4:	a0 a4 a6 04 08       	mov    0x804a6a4,%al
 8049fa9:	88 06                	mov    %al,(%esi)
 8049fab:	8d 7e 01             	lea    0x1(%esi),%edi
 8049fae:	b8 a5 a6 04 08       	mov    $0x804a6a5,%eax
 8049fb3:	b2 2e                	mov    $0x2e,%dl
 8049fb5:	f7 c7 02 00 00 00    	test   $0x2,%edi
 8049fbb:	74 0f                	je     8049fcc <init_driver+0x131>
 8049fbd:	66 8b 08             	mov    (%eax),%cx
 8049fc0:	66 89 0f             	mov    %cx,(%edi)
 8049fc3:	83 c7 02             	add    $0x2,%edi
 8049fc6:	83 c0 02             	add    $0x2,%eax
 8049fc9:	83 ea 02             	sub    $0x2,%edx
 8049fcc:	89 d1                	mov    %edx,%ecx
 8049fce:	c1 e9 02             	shr    $0x2,%ecx
 8049fd1:	89 c6                	mov    %eax,%esi
 8049fd3:	f3 a5                	rep movsl %ds:(%esi),%es:(%edi)
 8049fd5:	89 f0                	mov    %esi,%eax
 8049fd7:	f6 c2 02             	test   $0x2,%dl
 8049fda:	74 0b                	je     8049fe7 <init_driver+0x14c>
 8049fdc:	66 8b 0e             	mov    (%esi),%cx
 8049fdf:	66 89 0f             	mov    %cx,(%edi)
 8049fe2:	b9 02 00 00 00       	mov    $0x2,%ecx
 8049fe7:	f6 c2 01             	test   $0x1,%dl
 8049fea:	74 09                	je     8049ff5 <init_driver+0x15a>
 8049fec:	8a 04 08             	mov    (%eax,%ecx,1),%al
 8049fef:	88 45 c7             	mov    %al,-0x39(%ebp)
 8049ff2:	88 04 0f             	mov    %al,(%edi,%ecx,1)
 8049ff5:	89 1c 24             	mov    %ebx,(%esp)
 8049ff8:	e8 f3 e8 ff ff       	call   80488f0 <close@plt>
 8049ffd:	b8 ff ff ff ff       	mov    $0xffffffff,%eax
 804a002:	e9 b3 00 00 00       	jmp    804a0ba <init_driver+0x21f>
 804a007:	8d 7d d4             	lea    -0x2c(%ebp),%edi
 804a00a:	c7 45 d4 00 00 00 00 	movl   $0x0,-0x2c(%ebp)
 804a011:	c7 45 d8 00 00 00 00 	movl   $0x0,-0x28(%ebp)
 804a018:	c7 45 dc 00 00 00 00 	movl   $0x0,-0x24(%ebp)
 804a01f:	c7 45 e0 00 00 00 00 	movl   $0x0,-0x20(%ebp)
 804a026:	66 c7 45 d4 02 00    	movw   $0x2,-0x2c(%ebp)
 804a02c:	c7 44 24 0c 0c 00 00 	movl   $0xc,0xc(%esp)
 804a033:	00 
 804a034:	8b 50 0c             	mov    0xc(%eax),%edx
 804a037:	89 54 24 08          	mov    %edx,0x8(%esp)
 804a03b:	8b 40 10             	mov    0x10(%eax),%eax
 804a03e:	8b 00                	mov    (%eax),%eax
 804a040:	89 44 24 04          	mov    %eax,0x4(%esp)
 804a044:	8d 45 d8             	lea    -0x28(%ebp),%eax
 804a047:	89 04 24             	mov    %eax,(%esp)
 804a04a:	e8 b1 e7 ff ff       	call   8048800 <__memmove_chk@plt>
 804a04f:	66 c7 45 d6 3b 6e    	movw   $0x6e3b,-0x2a(%ebp)
 804a055:	c7 44 24 08 10 00 00 	movl   $0x10,0x8(%esp)
 804a05c:	00 
 804a05d:	89 7c 24 04          	mov    %edi,0x4(%esp)
 804a061:	89 1c 24             	mov    %ebx,(%esp)
 804a064:	e8 77 e8 ff ff       	call   80488e0 <connect@plt>
 804a069:	85 c0                	test   %eax,%eax
 804a06b:	79 37                	jns    804a0a4 <init_driver+0x209>
 804a06d:	c7 44 24 10 04 a9 04 	movl   $0x804a904,0x10(%esp)
 804a074:	08 
 804a075:	c7 44 24 0c c4 a8 04 	movl   $0x804a8c4,0xc(%esp)
 804a07c:	08 
 804a07d:	c7 44 24 08 ff ff ff 	movl   $0xffffffff,0x8(%esp)
 804a084:	ff 
 804a085:	c7 44 24 04 01 00 00 	movl   $0x1,0x4(%esp)
 804a08c:	00 
 804a08d:	89 34 24             	mov    %esi,(%esp)
 804a090:	e8 7b e8 ff ff       	call   8048910 <__sprintf_chk@plt>
 804a095:	89 1c 24             	mov    %ebx,(%esp)
 804a098:	e8 53 e8 ff ff       	call   80488f0 <close@plt>
 804a09d:	b8 ff ff ff ff       	mov    $0xffffffff,%eax
 804a0a2:	eb 16                	jmp    804a0ba <init_driver+0x21f>
 804a0a4:	89 1c 24             	mov    %ebx,(%esp)
 804a0a7:	e8 44 e8 ff ff       	call   80488f0 <close@plt>
 804a0ac:	66 c7 06 4f 4b       	movw   $0x4b4f,(%esi)
 804a0b1:	c6 46 02 00          	movb   $0x0,0x2(%esi)
 804a0b5:	b8 00 00 00 00       	mov    $0x0,%eax
 804a0ba:	8b 4d e4             	mov    -0x1c(%ebp),%ecx
 804a0bd:	65 33 0d 14 00 00 00 	xor    %gs:0x14,%ecx
 804a0c4:	74 05                	je     804a0cb <init_driver+0x230>
 804a0c6:	e8 f5 e6 ff ff       	call   80487c0 <__stack_chk_fail@plt>
 804a0cb:	83 c4 4c             	add    $0x4c,%esp
 804a0ce:	5b                   	pop    %ebx
 804a0cf:	5e                   	pop    %esi
 804a0d0:	5f                   	pop    %edi
 804a0d1:	5d                   	pop    %ebp
 804a0d2:	c3                   	ret    

0804a0d3 <driver_post>:
 804a0d3:	55                   	push   %ebp
 804a0d4:	89 e5                	mov    %esp,%ebp
 804a0d6:	53                   	push   %ebx
 804a0d7:	83 ec 24             	sub    $0x24,%esp
 804a0da:	8b 45 08             	mov    0x8(%ebp),%eax
 804a0dd:	8b 5d 14             	mov    0x14(%ebp),%ebx
 804a0e0:	83 7d 10 00          	cmpl   $0x0,0x10(%ebp)
 804a0e4:	74 2b                	je     804a111 <driver_post+0x3e>
 804a0e6:	8b 45 0c             	mov    0xc(%ebp),%eax
 804a0e9:	89 44 24 08          	mov    %eax,0x8(%esp)
 804a0ed:	c7 44 24 04 1b a9 04 	movl   $0x804a91b,0x4(%esp)
 804a0f4:	08 
 804a0f5:	c7 04 24 01 00 00 00 	movl   $0x1,(%esp)
 804a0fc:	e8 8f e7 ff ff       	call   8048890 <__printf_chk@plt>
 804a101:	66 c7 03 4f 4b       	movw   $0x4b4f,(%ebx)
 804a106:	c6 43 02 00          	movb   $0x0,0x2(%ebx)
 804a10a:	b8 00 00 00 00       	mov    $0x0,%eax
 804a10f:	eb 4c                	jmp    804a15d <driver_post+0x8a>
 804a111:	85 c0                	test   %eax,%eax
 804a113:	74 3a                	je     804a14f <driver_post+0x7c>
 804a115:	80 38 00             	cmpb   $0x0,(%eax)
 804a118:	74 35                	je     804a14f <driver_post+0x7c>
 804a11a:	89 5c 24 18          	mov    %ebx,0x18(%esp)
 804a11e:	8b 55 0c             	mov    0xc(%ebp),%edx
 804a121:	89 54 24 14          	mov    %edx,0x14(%esp)
 804a125:	c7 44 24 10 32 a9 04 	movl   $0x804a932,0x10(%esp)
 804a12c:	08 
 804a12d:	89 44 24 0c          	mov    %eax,0xc(%esp)
 804a131:	c7 44 24 08 3f a9 04 	movl   $0x804a93f,0x8(%esp)
 804a138:	08 
 804a139:	c7 44 24 04 6e 3b 00 	movl   $0x3b6e,0x4(%esp)
 804a140:	00 
 804a141:	c7 04 24 04 a9 04 08 	movl   $0x804a904,(%esp)
 804a148:	e8 e1 f3 ff ff       	call   804952e <submitr>
 804a14d:	eb 0e                	jmp    804a15d <driver_post+0x8a>
 804a14f:	66 c7 03 4f 4b       	movw   $0x4b4f,(%ebx)
 804a154:	c6 43 02 00          	movb   $0x0,0x2(%ebx)
 804a158:	b8 00 00 00 00       	mov    $0x0,%eax
 804a15d:	83 c4 24             	add    $0x24,%esp
 804a160:	5b                   	pop    %ebx
 804a161:	5d                   	pop    %ebp
 804a162:	c3                   	ret    
 804a163:	66 90                	xchg   %ax,%ax
 804a165:	66 90                	xchg   %ax,%ax
 804a167:	66 90                	xchg   %ax,%ax
 804a169:	66 90                	xchg   %ax,%ax
 804a16b:	66 90                	xchg   %ax,%ax
 804a16d:	66 90                	xchg   %ax,%ax
 804a16f:	90                   	nop

0804a170 <__libc_csu_init>:
 804a170:	55                   	push   %ebp
 804a171:	57                   	push   %edi
 804a172:	31 ff                	xor    %edi,%edi
 804a174:	56                   	push   %esi
 804a175:	53                   	push   %ebx
 804a176:	e8 d5 e7 ff ff       	call   8048950 <__x86.get_pc_thunk.bx>
 804a17b:	81 c3 85 1e 00 00    	add    $0x1e85,%ebx
 804a181:	83 ec 1c             	sub    $0x1c,%esp
 804a184:	8b 6c 24 30          	mov    0x30(%esp),%ebp
 804a188:	8d b3 0c ff ff ff    	lea    -0xf4(%ebx),%esi
 804a18e:	e8 91 e5 ff ff       	call   8048724 <_init>
 804a193:	8d 83 08 ff ff ff    	lea    -0xf8(%ebx),%eax
 804a199:	29 c6                	sub    %eax,%esi
 804a19b:	c1 fe 02             	sar    $0x2,%esi
 804a19e:	85 f6                	test   %esi,%esi
 804a1a0:	74 27                	je     804a1c9 <__libc_csu_init+0x59>
 804a1a2:	8d b6 00 00 00 00    	lea    0x0(%esi),%esi
 804a1a8:	8b 44 24 38          	mov    0x38(%esp),%eax
 804a1ac:	89 2c 24             	mov    %ebp,(%esp)
 804a1af:	89 44 24 08          	mov    %eax,0x8(%esp)
 804a1b3:	8b 44 24 34          	mov    0x34(%esp),%eax
 804a1b7:	89 44 24 04          	mov    %eax,0x4(%esp)
 804a1bb:	ff 94 bb 08 ff ff ff 	call   *-0xf8(%ebx,%edi,4)
 804a1c2:	83 c7 01             	add    $0x1,%edi
 804a1c5:	39 f7                	cmp    %esi,%edi
 804a1c7:	75 df                	jne    804a1a8 <__libc_csu_init+0x38>
 804a1c9:	83 c4 1c             	add    $0x1c,%esp
 804a1cc:	5b                   	pop    %ebx
 804a1cd:	5e                   	pop    %esi
 804a1ce:	5f                   	pop    %edi
 804a1cf:	5d                   	pop    %ebp
 804a1d0:	c3                   	ret    
 804a1d1:	eb 0d                	jmp    804a1e0 <__libc_csu_fini>
 804a1d3:	90                   	nop
 804a1d4:	90                   	nop
 804a1d5:	90                   	nop
 804a1d6:	90                   	nop
 804a1d7:	90                   	nop
 804a1d8:	90                   	nop
 804a1d9:	90                   	nop
 804a1da:	90                   	nop
 804a1db:	90                   	nop
 804a1dc:	90                   	nop
 804a1dd:	90                   	nop
 804a1de:	90                   	nop
 804a1df:	90                   	nop

0804a1e0 <__libc_csu_fini>:
 804a1e0:	f3 c3                	repz ret 

Disassembly of section .fini:

0804a1e4 <_fini>:
 804a1e4:	53                   	push   %ebx
 804a1e5:	83 ec 08             	sub    $0x8,%esp
 804a1e8:	e8 63 e7 ff ff       	call   8048950 <__x86.get_pc_thunk.bx>
 804a1ed:	81 c3 13 1e 00 00    	add    $0x1e13,%ebx
 804a1f3:	83 c4 08             	add    $0x8,%esp
 804a1f6:	5b                   	pop    %ebx
 804a1f7:	c3                   	ret    
